

Microchip MPLAB XC8 Assembler V2.10 build 88905656 
                                                                                               Sun Nov 17 19:16:36 2019

Microchip MPLAB XC8 C Compiler v2.10 (Free license) build 20190730164152 Og1 
     1                           	processor	16F1937
     2                           	opt	pw 120
     3                           	opt	flic
     4                           	psect	idataBANK3,global,class=CODE,delta=2
     5                           	psect	idataBANK4,global,class=CODE,delta=2
     6                           	psect	cinit,global,class=CODE,merge=1,delta=2
     7                           	psect	bssBANK0,global,class=BANK0,space=1,delta=1
     8                           	psect	bssBANK1,global,class=BANK1,space=1,delta=1
     9                           	psect	dataBANK3,global,class=BANK3,space=1,delta=1
    10                           	psect	dataBANK4,global,class=BANK4,space=1,delta=1
    11                           	psect	inittext,global,class=CODE,delta=2
    12                           	psect	cstackBANK2,global,class=BANK2,space=1,delta=1
    13                           	psect	cstackBANK1,global,class=BANK1,space=1,delta=1
    14                           	psect	cstackCOMMON,global,class=COMMON,space=1,delta=1
    15                           	psect	cstackBANK0,global,class=BANK0,space=1,delta=1
    16                           	psect	maintext,global,class=CODE,merge=1,split=1,delta=2
    17                           	psect	text1,local,class=CODE,merge=1,delta=2,group=1
    18                           	psect	text2,local,class=CODE,merge=1,delta=2,group=1
    19                           	psect	text3,local,class=CODE,merge=1,delta=2,group=1
    20                           	psect	text4,local,class=CODE,merge=1,delta=2,group=1
    21                           	psect	text5,local,class=CODE,merge=1,delta=2,group=1
    22                           	psect	text6,local,class=CODE,merge=1,delta=2,group=1
    23                           	psect	text7,local,class=CODE,merge=1,delta=2,group=1
    24                           	dabs	1,0x7E,2
    25  0000                     
    26                           ; Version 2.10
    27                           ; Generated 31/07/2019 GMT
    28                           ; 
    29                           ; Copyright © 2019, Microchip Technology Inc. and its subsidiaries ("Microchip")
    30                           ; All rights reserved.
    31                           ; 
    32                           ; This software is developed by Microchip Technology Inc. and its subsidiaries ("Microch
      +                          ip").
    33                           ; 
    34                           ; Redistribution and use in source and binary forms, with or without modification, are
    35                           ; permitted provided that the following conditions are met:
    36                           ; 
    37                           ;     1. Redistributions of source code must retain the above copyright notice, this lis
      +                          t of
    38                           ;        conditions and the following disclaimer.
    39                           ; 
    40                           ;     2. Redistributions in binary form must reproduce the above copyright notice, this 
      +                          list
    41                           ;        of conditions and the following disclaimer in the documentation and/or other
    42                           ;        materials provided with the distribution.
    43                           ; 
    44                           ;     3. Microchip's name may not be used to endorse or promote products derived from th
      +                          is
    45                           ;        software without specific prior written permission.
    46                           ; 
    47                           ; THIS SOFTWARE IS PROVIDED BY MICROCHIP "AS IS" AND ANY EXPRESS OR IMPLIED WARRANTIES,
    48                           ; INCLUDING, BUT NOT LIMITED TO, THE IMPLIED WARRANTIES OF MERCHANTABILITY AND FITNESS F
      +                          OR
    49                           ; PURPOSE ARE DISCLAIMED.  IN NO EVENT SHALL MICROCHIP BE LIABLE FOR ANY DIRECT, INDIREC
      +                          T,
    50                           ; INCIDENTAL, SPECIAL, EXEMPLARY, OR CONSEQUENTIAL DAMAGES (INCLUDING BUT NOT LIMITED TO
    51                           ; PROCUREMENT OF SUBSTITUTE GOODS OR SERVICES; LOSS OF USE, DATA OR PROFITS; OR BUSINESS
    52                           ; INTERRUPTION) HOWSOEVER CAUSED AND ON ANY THEORY OF LIABILITY, WHETHER IN CONTRACT, ST
      +                          RICT
    53                           ; LIABILITY, OR TORT (INCLUDING NEGLIGENCE OR OTHERWISE) ARISING IN ANY WAY OUT OF THE U
      +                          SE OF
    54                           ; THIS SOFTWARE, EVEN IF ADVISED OF THE POSSIBILITY OF SUCH DAMAGE.
    55                           ; 
    56                           ; 
    57                           ; Code-generator required, PIC16F1937 Definitions
    58                           ; 
    59                           ; SFR Addresses
    60  0000                     	;# 
    61  0001                     	;# 
    62  0002                     	;# 
    63  0003                     	;# 
    64  0004                     	;# 
    65  0005                     	;# 
    66  0006                     	;# 
    67  0007                     	;# 
    68  0008                     	;# 
    69  0009                     	;# 
    70  000A                     	;# 
    71  000B                     	;# 
    72  000C                     	;# 
    73  000D                     	;# 
    74  000E                     	;# 
    75  000F                     	;# 
    76  0010                     	;# 
    77  0011                     	;# 
    78  0012                     	;# 
    79  0013                     	;# 
    80  0015                     	;# 
    81  0016                     	;# 
    82  0016                     	;# 
    83  0017                     	;# 
    84  0018                     	;# 
    85  0019                     	;# 
    86  001A                     	;# 
    87  001B                     	;# 
    88  001C                     	;# 
    89  001E                     	;# 
    90  001F                     	;# 
    91  008C                     	;# 
    92  008D                     	;# 
    93  008E                     	;# 
    94  008F                     	;# 
    95  0090                     	;# 
    96  0091                     	;# 
    97  0092                     	;# 
    98  0093                     	;# 
    99  0095                     	;# 
   100  0096                     	;# 
   101  0097                     	;# 
   102  0098                     	;# 
   103  0099                     	;# 
   104  009A                     	;# 
   105  009B                     	;# 
   106  009B                     	;# 
   107  009C                     	;# 
   108  009D                     	;# 
   109  009E                     	;# 
   110  010C                     	;# 
   111  010D                     	;# 
   112  010E                     	;# 
   113  010F                     	;# 
   114  0110                     	;# 
   115  0111                     	;# 
   116  0112                     	;# 
   117  0113                     	;# 
   118  0114                     	;# 
   119  0115                     	;# 
   120  0116                     	;# 
   121  0117                     	;# 
   122  0118                     	;# 
   123  0119                     	;# 
   124  011A                     	;# 
   125  011B                     	;# 
   126  011D                     	;# 
   127  018C                     	;# 
   128  018D                     	;# 
   129  018F                     	;# 
   130  0190                     	;# 
   131  0191                     	;# 
   132  0191                     	;# 
   133  0192                     	;# 
   134  0193                     	;# 
   135  0193                     	;# 
   136  0193                     	;# 
   137  0194                     	;# 
   138  0195                     	;# 
   139  0196                     	;# 
   140  0199                     	;# 
   141  019A                     	;# 
   142  019B                     	;# 
   143  019B                     	;# 
   144  019B                     	;# 
   145  019B                     	;# 
   146  019C                     	;# 
   147  019C                     	;# 
   148  019D                     	;# 
   149  019E                     	;# 
   150  019F                     	;# 
   151  020D                     	;# 
   152  0210                     	;# 
   153  0211                     	;# 
   154  0212                     	;# 
   155  0213                     	;# 
   156  0214                     	;# 
   157  0215                     	;# 
   158  0215                     	;# 
   159  0216                     	;# 
   160  0217                     	;# 
   161  0291                     	;# 
   162  0291                     	;# 
   163  0292                     	;# 
   164  0293                     	;# 
   165  0294                     	;# 
   166  0295                     	;# 
   167  0295                     	;# 
   168  0296                     	;# 
   169  0298                     	;# 
   170  0298                     	;# 
   171  0299                     	;# 
   172  029A                     	;# 
   173  029B                     	;# 
   174  029C                     	;# 
   175  029C                     	;# 
   176  029D                     	;# 
   177  029E                     	;# 
   178  029F                     	;# 
   179  0311                     	;# 
   180  0311                     	;# 
   181  0312                     	;# 
   182  0313                     	;# 
   183  0314                     	;# 
   184  0315                     	;# 
   185  0315                     	;# 
   186  0316                     	;# 
   187  0318                     	;# 
   188  0318                     	;# 
   189  0319                     	;# 
   190  031A                     	;# 
   191  031C                     	;# 
   192  031C                     	;# 
   193  031D                     	;# 
   194  031E                     	;# 
   195  0394                     	;# 
   196  0395                     	;# 
   197  0396                     	;# 
   198  0415                     	;# 
   199  0416                     	;# 
   200  0417                     	;# 
   201  041C                     	;# 
   202  041D                     	;# 
   203  041E                     	;# 
   204  0791                     	;# 
   205  0792                     	;# 
   206  0793                     	;# 
   207  0794                     	;# 
   208  0795                     	;# 
   209  0798                     	;# 
   210  0799                     	;# 
   211  079A                     	;# 
   212  07A0                     	;# 
   213  07A1                     	;# 
   214  07A2                     	;# 
   215  07A3                     	;# 
   216  07A4                     	;# 
   217  07A5                     	;# 
   218  07A6                     	;# 
   219  07A7                     	;# 
   220  07A8                     	;# 
   221  07A9                     	;# 
   222  07AA                     	;# 
   223  07AB                     	;# 
   224  0FE4                     	;# 
   225  0FE5                     	;# 
   226  0FE6                     	;# 
   227  0FE7                     	;# 
   228  0FE8                     	;# 
   229  0FE9                     	;# 
   230  0FEA                     	;# 
   231  0FEB                     	;# 
   232  0FED                     	;# 
   233  0FEE                     	;# 
   234  0FEF                     	;# 
   235  0000                     	;# 
   236  0001                     	;# 
   237  0002                     	;# 
   238  0003                     	;# 
   239  0004                     	;# 
   240  0005                     	;# 
   241  0006                     	;# 
   242  0007                     	;# 
   243  0008                     	;# 
   244  0009                     	;# 
   245  000A                     	;# 
   246  000B                     	;# 
   247  000C                     	;# 
   248  000D                     	;# 
   249  000E                     	;# 
   250  000F                     	;# 
   251  0010                     	;# 
   252  0011                     	;# 
   253  0012                     	;# 
   254  0013                     	;# 
   255  0015                     	;# 
   256  0016                     	;# 
   257  0016                     	;# 
   258  0017                     	;# 
   259  0018                     	;# 
   260  0019                     	;# 
   261  001A                     	;# 
   262  001B                     	;# 
   263  001C                     	;# 
   264  001E                     	;# 
   265  001F                     	;# 
   266  008C                     	;# 
   267  008D                     	;# 
   268  008E                     	;# 
   269  008F                     	;# 
   270  0090                     	;# 
   271  0091                     	;# 
   272  0092                     	;# 
   273  0093                     	;# 
   274  0095                     	;# 
   275  0096                     	;# 
   276  0097                     	;# 
   277  0098                     	;# 
   278  0099                     	;# 
   279  009A                     	;# 
   280  009B                     	;# 
   281  009B                     	;# 
   282  009C                     	;# 
   283  009D                     	;# 
   284  009E                     	;# 
   285  010C                     	;# 
   286  010D                     	;# 
   287  010E                     	;# 
   288  010F                     	;# 
   289  0110                     	;# 
   290  0111                     	;# 
   291  0112                     	;# 
   292  0113                     	;# 
   293  0114                     	;# 
   294  0115                     	;# 
   295  0116                     	;# 
   296  0117                     	;# 
   297  0118                     	;# 
   298  0119                     	;# 
   299  011A                     	;# 
   300  011B                     	;# 
   301  011D                     	;# 
   302  018C                     	;# 
   303  018D                     	;# 
   304  018F                     	;# 
   305  0190                     	;# 
   306  0191                     	;# 
   307  0191                     	;# 
   308  0192                     	;# 
   309  0193                     	;# 
   310  0193                     	;# 
   311  0193                     	;# 
   312  0194                     	;# 
   313  0195                     	;# 
   314  0196                     	;# 
   315  0199                     	;# 
   316  019A                     	;# 
   317  019B                     	;# 
   318  019B                     	;# 
   319  019B                     	;# 
   320  019B                     	;# 
   321  019C                     	;# 
   322  019C                     	;# 
   323  019D                     	;# 
   324  019E                     	;# 
   325  019F                     	;# 
   326  020D                     	;# 
   327  0210                     	;# 
   328  0211                     	;# 
   329  0212                     	;# 
   330  0213                     	;# 
   331  0214                     	;# 
   332  0215                     	;# 
   333  0215                     	;# 
   334  0216                     	;# 
   335  0217                     	;# 
   336  0291                     	;# 
   337  0291                     	;# 
   338  0292                     	;# 
   339  0293                     	;# 
   340  0294                     	;# 
   341  0295                     	;# 
   342  0295                     	;# 
   343  0296                     	;# 
   344  0298                     	;# 
   345  0298                     	;# 
   346  0299                     	;# 
   347  029A                     	;# 
   348  029B                     	;# 
   349  029C                     	;# 
   350  029C                     	;# 
   351  029D                     	;# 
   352  029E                     	;# 
   353  029F                     	;# 
   354  0311                     	;# 
   355  0311                     	;# 
   356  0312                     	;# 
   357  0313                     	;# 
   358  0314                     	;# 
   359  0315                     	;# 
   360  0315                     	;# 
   361  0316                     	;# 
   362  0318                     	;# 
   363  0318                     	;# 
   364  0319                     	;# 
   365  031A                     	;# 
   366  031C                     	;# 
   367  031C                     	;# 
   368  031D                     	;# 
   369  031E                     	;# 
   370  0394                     	;# 
   371  0395                     	;# 
   372  0396                     	;# 
   373  0415                     	;# 
   374  0416                     	;# 
   375  0417                     	;# 
   376  041C                     	;# 
   377  041D                     	;# 
   378  041E                     	;# 
   379  0791                     	;# 
   380  0792                     	;# 
   381  0793                     	;# 
   382  0794                     	;# 
   383  0795                     	;# 
   384  0798                     	;# 
   385  0799                     	;# 
   386  079A                     	;# 
   387  07A0                     	;# 
   388  07A1                     	;# 
   389  07A2                     	;# 
   390  07A3                     	;# 
   391  07A4                     	;# 
   392  07A5                     	;# 
   393  07A6                     	;# 
   394  07A7                     	;# 
   395  07A8                     	;# 
   396  07A9                     	;# 
   397  07AA                     	;# 
   398  07AB                     	;# 
   399  0FE4                     	;# 
   400  0FE5                     	;# 
   401  0FE6                     	;# 
   402  0FE7                     	;# 
   403  0FE8                     	;# 
   404  0FE9                     	;# 
   405  0FEA                     	;# 
   406  0FEB                     	;# 
   407  0FED                     	;# 
   408  0FEE                     	;# 
   409  0FEF                     	;# 
   410                           
   411                           	psect	idataBANK3
   412  0103                     __pidataBANK3:	
   413                           
   414                           ;initializer for main@F2918
   415  0103  3406               	retlw	6
   416  0104  3401               	retlw	1
   417  0105  3406               	retlw	6
   418  0106  3401               	retlw	1
   419  0107  3426               	retlw	38
   420  0108  3401               	retlw	1
   421  0109  3406               	retlw	6
   422  010A  3401               	retlw	1
   423  010B  345D               	retlw	93
   424  010C  3401               	retlw	1
   425  010D  344A               	retlw	74
   426  010E  3401               	retlw	1
   427  010F  3406               	retlw	6
   428  0110  3401               	retlw	1
   429  0111  3406               	retlw	6
   430  0112  3401               	retlw	1
   431  0113  3426               	retlw	38
   432  0114  3401               	retlw	1
   433  0115  3406               	retlw	6
   434  0116  3401               	retlw	1
   435  0117  3488               	retlw	136
   436  0118  3401               	retlw	1
   437  0119  345D               	retlw	93
   438  011A  3401               	retlw	1
   439  011B  3406               	retlw	6
   440  011C  3401               	retlw	1
   441  011D  3406               	retlw	6
   442  011E  3401               	retlw	1
   443  011F  340B               	retlw	11
   444  0120  3402               	retlw	2
   445  0121  34B8               	retlw	184
   446  0122  3401               	retlw	1
   447  0123  345D               	retlw	93
   448  0124  3401               	retlw	1
   449  0125  344A               	retlw	74
   450  0126  3401               	retlw	1
   451  0127  3426               	retlw	38
   452  0128  3401               	retlw	1
   453  0129  34D2               	retlw	210
   454  012A  3401               	retlw	1
   455  012B  34D2               	retlw	210
   456  012C  3401               	retlw	1
   457  012D  34B8               	retlw	184
   458  012E  3401               	retlw	1
   459  012F  345D               	retlw	93
   460  0130  3401               	retlw	1
   461  0131  3488               	retlw	136
   462  0132  3401               	retlw	1
   463  0133  345D               	retlw	93
   464  0134  3401               	retlw	1
   465                           
   466                           	psect	idataBANK4
   467  00D1                     __pidataBANK4:	
   468                           
   469                           ;initializer for main@F2920
   470  00D1  3404               	retlw	4
   471  00D2  3400               	retlw	0
   472  00D3  3404               	retlw	4
   473  00D4  3400               	retlw	0
   474  00D5  3408               	retlw	8
   475  00D6  3400               	retlw	0
   476  00D7  3408               	retlw	8
   477  00D8  3400               	retlw	0
   478  00D9  3408               	retlw	8
   479  00DA  3400               	retlw	0
   480  00DB  340A               	retlw	10
   481  00DC  3400               	retlw	0
   482  00DD  3404               	retlw	4
   483  00DE  3400               	retlw	0
   484  00DF  3404               	retlw	4
   485  00E0  3400               	retlw	0
   486  00E1  3408               	retlw	8
   487  00E2  3400               	retlw	0
   488  00E3  3408               	retlw	8
   489  00E4  3400               	retlw	0
   490  00E5  3408               	retlw	8
   491  00E6  3400               	retlw	0
   492  00E7  340A               	retlw	10
   493  00E8  3400               	retlw	0
   494  00E9  3404               	retlw	4
   495  00EA  3400               	retlw	0
   496  00EB  3404               	retlw	4
   497  00EC  3400               	retlw	0
   498  00ED  3408               	retlw	8
   499  00EE  3400               	retlw	0
   500  00EF  3408               	retlw	8
   501  00F0  3400               	retlw	0
   502  00F1  3408               	retlw	8
   503  00F2  3400               	retlw	0
   504  00F3  3408               	retlw	8
   505  00F4  3400               	retlw	0
   506  00F5  3408               	retlw	8
   507  00F6  3400               	retlw	0
   508  00F7  3404               	retlw	4
   509  00F8  3400               	retlw	0
   510  00F9  3404               	retlw	4
   511  00FA  3400               	retlw	0
   512  00FB  3408               	retlw	8
   513  00FC  3400               	retlw	0
   514  00FD  3408               	retlw	8
   515  00FE  3400               	retlw	0
   516  00FF  3408               	retlw	8
   517  0100  3400               	retlw	0
   518  0101  340C               	retlw	12
   519  0102  3400               	retlw	0
   520  006F                     _RB7	set	111
   521  005D                     _TMR0IE	set	93
   522  046F                     _TRISB7	set	1135
   523  04AC                     _TMR0SE	set	1196
   524  04AD                     _TMR0CS	set	1197
   525  04CB                     _IRCF0	set	1227
   526  04CC                     _IRCF1	set	1228
   527  04CD                     _IRCF2	set	1229
   528  04CE                     _IRCF3	set	1230
   529  04C8                     _SCS0	set	1224
   530  04C9                     _SCS1	set	1225
   531                           
   532                           ; #config settings
   533  0000                     
   534                           	psect	cinit
   535  07E0                     start_initialization:	
   536  07E0                     __initialization:	
   537                           
   538                           ; Initialize objects allocated to BANK3
   539  07E0  3003               	movlw	low __pidataBANK3
   540  07E1  0084               	movwf	4
   541  07E2  3081               	movlw	(high __pidataBANK3)| (0+128)
   542  07E3  0085               	movwf	5
   543  07E4  30A0               	movlw	low __pdataBANK3
   544  07E5  0086               	movwf	6
   545  07E6  3001               	movlw	high __pdataBANK3
   546  07E7  0087               	movwf	7
   547  07E8  3032               	movlw	50
   548  07E9  3180  2089  3187   	fcall	init_ram
   549                           
   550                           ; Initialize objects allocated to BANK4
   551  07EC  30D1               	movlw	low __pidataBANK4
   552  07ED  0084               	movwf	4
   553  07EE  3080               	movlw	(high __pidataBANK4)| (0+128)
   554  07EF  0085               	movwf	5
   555  07F0  3020               	movlw	low __pdataBANK4
   556  07F1  0086               	movwf	6
   557  07F2  3002               	movlw	high __pdataBANK4
   558  07F3  0087               	movwf	7
   559  07F4  3032               	movlw	50
   560  07F5  3180  2089  3187   	fcall	init_ram
   561                           
   562                           ; Clear objects allocated to BANK0
   563  07F8  01E9               	clrf	__pbssBANK0& (0+127)
   564  07F9  01EA               	clrf	(__pbssBANK0+1)& (0+127)
   565                           
   566                           ; Clear objects allocated to BANK1
   567  07FA  0021               	movlb	1	; select bank1
   568  07FB  01D2               	clrf	__pbssBANK1& (0+127)
   569  07FC  01D3               	clrf	(__pbssBANK1+1)& (0+127)
   570  07FD                     end_of_initialization:	
   571                           ;End of C runtime variable initialization code
   572                           
   573  07FD                     __end_of__initialization:	
   574  07FD  0020               	movlb	0
   575  07FE  3182  2AB5         	ljmp	_main	;jump to C main() function
   576                           
   577                           	psect	bssBANK0
   578  0069                     __pbssBANK0:	
   579  0069                     _current_period_count:	
   580  0069                     	ds	2
   581                           
   582                           	psect	bssBANK1
   583  00D2                     __pbssBANK1:	
   584  00D2                     _half_period:	
   585  00D2                     	ds	2
   586                           
   587                           	psect	dataBANK3
   588  01A0                     __pdataBANK3:	
   589  01A0                     main@F2918:	
   590  01A0                     	ds	50
   591                           
   592                           	psect	dataBANK4
   593  0220                     __pdataBANK4:	
   594  0220                     main@F2920:	
   595  0220                     	ds	50
   596                           
   597                           	psect	inittext
   598  0089                     init_ram:	
   599  0089  00FE               	movwf	btemp
   600  008A                     initloop:	
   601  008A  0012               	moviw fsr0++
   602  008B  001E               	movwi fsr1++
   603  008C  0BFE               	decfsz	btemp,f
   604  008D  288A               	goto	initloop
   605  008E  3400               	retlw	0
   606                           
   607                           	psect	cstackBANK2
   608  0120                     __pcstackBANK2:	
   609  0120                     main@interval:	
   610                           
   611                           ; 50 bytes @ 0x0
   612  0120                     	ds	50
   613                           
   614                           	psect	cstackBANK1
   615  00A0                     __pcstackBANK1:	
   616  00A0                     main@notes:	
   617                           
   618                           ; 50 bytes @ 0x0
   619  00A0                     	ds	50
   620                           
   621                           	psect	cstackCOMMON
   622  0070                     __pcstackCOMMON:	
   623  0070                     ?_main:	
   624  0070                     ?__Umul8_16:	
   625                           ; 1 bytes @ 0x0
   626                           
   627  0070                     ?___wmul:	
   628                           ; 2 bytes @ 0x0
   629                           
   630  0070                     ?___awdiv:	
   631                           ; 2 bytes @ 0x0
   632                           
   633  0070                     ?___xxtofl:	
   634                           ; 2 bytes @ 0x0
   635                           
   636  0070                     __Umul8_16@multiplicand:	
   637                           ; 4 bytes @ 0x0
   638                           
   639  0070                     ___wmul@multiplier:	
   640                           ; 1 bytes @ 0x0
   641                           
   642  0070                     ___awdiv@divisor:	
   643                           ; 2 bytes @ 0x0
   644                           
   645  0070                     ___xxtofl@val:	
   646                           ; 2 bytes @ 0x0
   647                           
   648                           
   649                           ; 4 bytes @ 0x0
   650  0070                     	ds	2
   651  0072                     ??__Umul8_16:	
   652  0072                     ___wmul@multiplicand:	
   653                           ; 1 bytes @ 0x2
   654                           
   655  0072                     ___awdiv@dividend:	
   656                           ; 2 bytes @ 0x2
   657                           
   658                           
   659                           ; 2 bytes @ 0x2
   660  0072                     	ds	2
   661  0074                     ??___wmul:	
   662  0074                     ??___awdiv:	
   663                           ; 1 bytes @ 0x4
   664                           
   665  0074                     ??___xxtofl:	
   666                           ; 1 bytes @ 0x4
   667                           
   668  0074                     ___wmul@product:	
   669                           ; 1 bytes @ 0x4
   670                           
   671  0074                     __Umul8_16@product:	
   672                           ; 2 bytes @ 0x4
   673                           
   674                           
   675                           ; 2 bytes @ 0x4
   676  0074                     	ds	1
   677  0075                     ___awdiv@counter:	
   678                           
   679                           ; 1 bytes @ 0x5
   680  0075                     	ds	1
   681  0076                     ___awdiv@sign:	
   682  0076                     __Umul8_16@word_mpld:	
   683                           ; 1 bytes @ 0x6
   684                           
   685                           
   686                           ; 2 bytes @ 0x6
   687  0076                     	ds	1
   688  0077                     ___awdiv@quotient:	
   689                           
   690                           ; 2 bytes @ 0x7
   691  0077                     	ds	1
   692  0078                     ___xxtofl@sign:	
   693  0078                     __Umul8_16@multiplier:	
   694                           ; 1 bytes @ 0x8
   695                           
   696                           
   697                           ; 1 bytes @ 0x8
   698  0078                     	ds	1
   699  0079                     ___xxtofl@exp:	
   700                           
   701                           ; 1 bytes @ 0x9
   702  0079                     	ds	1
   703  007A                     ___xxtofl@arg:	
   704                           
   705                           ; 4 bytes @ 0xA
   706  007A                     	ds	4
   707                           
   708                           	psect	cstackBANK0
   709  0020                     __pcstackBANK0:	
   710  0020                     ?___fldiv:	
   711  0020                     ___fldiv@a:	
   712                           ; 4 bytes @ 0x0
   713                           
   714                           
   715                           ; 4 bytes @ 0x0
   716  0020                     	ds	4
   717  0024                     ___fldiv@b:	
   718                           
   719                           ; 4 bytes @ 0x4
   720  0024                     	ds	4
   721  0028                     ??___fldiv:	
   722                           
   723                           ; 1 bytes @ 0x8
   724  0028                     	ds	5
   725  002D                     ___fldiv@rem:	
   726                           
   727                           ; 4 bytes @ 0xD
   728  002D                     	ds	4
   729  0031                     ___fldiv@sign:	
   730                           
   731                           ; 1 bytes @ 0x11
   732  0031                     	ds	1
   733  0032                     ___fldiv@new_exp:	
   734                           
   735                           ; 2 bytes @ 0x12
   736  0032                     	ds	2
   737  0034                     ___fldiv@grs:	
   738                           
   739                           ; 4 bytes @ 0x14
   740  0034                     	ds	4
   741  0038                     ___fldiv@bexp:	
   742                           
   743                           ; 1 bytes @ 0x18
   744  0038                     	ds	1
   745  0039                     ___fldiv@aexp:	
   746                           
   747                           ; 1 bytes @ 0x19
   748  0039                     	ds	1
   749  003A                     ?___flmul:	
   750  003A                     ___flmul@b:	
   751                           ; 4 bytes @ 0x1A
   752                           
   753                           
   754                           ; 4 bytes @ 0x1A
   755  003A                     	ds	4
   756  003E                     ___flmul@a:	
   757                           
   758                           ; 4 bytes @ 0x1E
   759  003E                     	ds	4
   760  0042                     ??___flmul:	
   761                           
   762                           ; 1 bytes @ 0x22
   763  0042                     	ds	5
   764  0047                     ___flmul@sign:	
   765                           
   766                           ; 1 bytes @ 0x27
   767  0047                     	ds	1
   768  0048                     ___flmul@grs:	
   769                           
   770                           ; 4 bytes @ 0x28
   771  0048                     	ds	4
   772  004C                     ___flmul@aexp:	
   773                           
   774                           ; 1 bytes @ 0x2C
   775  004C                     	ds	1
   776  004D                     ___flmul@bexp:	
   777                           
   778                           ; 1 bytes @ 0x2D
   779  004D                     	ds	1
   780  004E                     ___flmul@prod:	
   781                           
   782                           ; 4 bytes @ 0x2E
   783  004E                     	ds	4
   784  0052                     ___flmul@temp:	
   785                           
   786                           ; 2 bytes @ 0x32
   787  0052                     	ds	2
   788  0054                     ?___fltol:	
   789  0054                     ___fltol@f1:	
   790                           ; 4 bytes @ 0x34
   791                           
   792                           
   793                           ; 4 bytes @ 0x34
   794  0054                     	ds	4
   795  0058                     ??___fltol:	
   796                           
   797                           ; 1 bytes @ 0x38
   798  0058                     	ds	5
   799  005D                     ___fltol@sign1:	
   800                           
   801                           ; 1 bytes @ 0x3D
   802  005D                     	ds	1
   803  005E                     ___fltol@exp1:	
   804                           
   805                           ; 1 bytes @ 0x3E
   806  005E                     	ds	1
   807  005F                     ??_main:	
   808                           
   809                           ; 1 bytes @ 0x3F
   810  005F                     	ds	2
   811  0061                     _main$678:	
   812                           
   813                           ; 2 bytes @ 0x41
   814  0061                     	ds	2
   815  0063                     main@k:	
   816                           
   817                           ; 2 bytes @ 0x43
   818  0063                     	ds	2
   819  0065                     main@i:	
   820                           
   821                           ; 2 bytes @ 0x45
   822  0065                     	ds	2
   823  0067                     main@j:	
   824                           
   825                           ; 2 bytes @ 0x47
   826  0067                     	ds	2
   827                           
   828                           	psect	maintext
   829  02B5                     __pmaintext:	
   830 ;;
   831 ;;Main: autosize = 0, tempsize = 2, incstack = 0, save=0
   832 ;;
   833 ;; *************** function _main *****************
   834 ;; Defined at:
   835 ;;		line 44 in file "newmain.c"
   836 ;; Parameters:    Size  Location     Type
   837 ;;		None
   838 ;; Auto vars:     Size  Location     Type
   839 ;;  interval       50    0[BANK2 ] unsigned short [25]
   840 ;;  notes          50    0[BANK1 ] unsigned int [25]
   841 ;;  j               2   71[BANK0 ] int 
   842 ;;  i               2   69[BANK0 ] int 
   843 ;;  k               2   67[BANK0 ] int 
   844 ;; Return value:  Size  Location     Type
   845 ;;                  1    wreg      void 
   846 ;; Registers used:
   847 ;;		wreg, fsr0l, fsr0h, fsr1l, fsr1h, status,2, status,0, pclath, cstack
   848 ;; Tracked objects:
   849 ;;		On entry : B1F/0
   850 ;;		On exit  : 0/0
   851 ;;		Unchanged: 0/0
   852 ;; Data sizes:     COMMON   BANK0   BANK1   BANK2   BANK3   BANK4   BANK5   BANK6
   853 ;;      Params:         0       0       0       0       0       0       0       0
   854 ;;      Locals:         0       8      50      50       0       0       0       0
   855 ;;      Temps:          0       2       0       0       0       0       0       0
   856 ;;      Totals:         0      10      50      50       0       0       0       0
   857 ;;Total ram usage:      110 bytes
   858 ;; Hardware stack levels required when called:    2
   859 ;; This function calls:
   860 ;;		___awdiv
   861 ;;		___fldiv
   862 ;;		___flmul
   863 ;;		___fltol
   864 ;;		___wmul
   865 ;;		___xxtofl
   866 ;; This function is called by:
   867 ;;		Startup code after reset
   868 ;; This function uses a non-reentrant model
   869 ;;
   870                           
   871                           
   872                           ;psect for function _main
   873  02B5                     _main:	
   874  02B5                     l1567:	
   875                           ;incstack = 0
   876                           ; Regs used in _main: [wreg-fsr1h+status,2+status,0+pclath+cstack]
   877                           
   878                           
   879                           ;newmain.c: 45:     SCS1 = 1;
   880  02B5  0021               	movlb	1	; select bank1
   881  02B6  1499               	bsf	25,1	;volatile
   882                           
   883                           ;newmain.c: 46:     SCS0 = 0;
   884  02B7  1019               	bcf	25,0	;volatile
   885                           
   886                           ;newmain.c: 48:     IRCF3 = 1;
   887  02B8  1719               	bsf	25,6	;volatile
   888                           
   889                           ;newmain.c: 49:     IRCF2 = 1;
   890  02B9  1699               	bsf	25,5	;volatile
   891                           
   892                           ;newmain.c: 50:     IRCF1 = 0;
   893  02BA  1219               	bcf	25,4	;volatile
   894                           
   895                           ;newmain.c: 51:     IRCF0 = 1;
   896  02BB  1599               	bsf	25,3	;volatile
   897  02BC                     l1569:	
   898                           
   899                           ;newmain.c: 55:     unsigned int notes[] = {262, 262, 294, 262, 349, 330, 262, 262, 294,
      +                           262, 392,
   900  02BC  30A0               	movlw	low main@F2918
   901  02BD  0086               	movwf	6
   902  02BE  3001               	movlw	high main@F2918
   903  02BF  0087               	movwf	7
   904  02C0  30A0               	movlw	low main@notes
   905  02C1  0084               	movwf	4
   906  02C2  3000               	movlw	high main@notes
   907  02C3  0085               	movwf	5
   908  02C4  3032               	movlw	50
   909  02C5  0020               	movlb	0	; select bank0
   910  02C6  00DF               	movwf	??_main
   911  02C7                     u1990:	
   912  02C7  0016               	moviw fsr1++
   913  02C8  001A               	movwi fsr0++
   914  02C9  0BDF               	decfsz	??_main,f
   915  02CA  2AC7               	goto	u1990
   916                           
   917                           ;newmain.c: 65:     unsigned short interval[] = {4, 4, 8, 8, 8, 10, 4, 4, 8, 8, 8, 10, 4
      +                          , 4, 8, 8, 8,
   918  02CB  3020               	movlw	low main@F2920
   919  02CC  0086               	movwf	6
   920  02CD  3002               	movlw	high main@F2920
   921  02CE  0087               	movwf	7
   922  02CF  3020               	movlw	low main@interval
   923  02D0  0084               	movwf	4
   924  02D1  3001               	movlw	high main@interval
   925  02D2  0085               	movwf	5
   926  02D3  3032               	movlw	50
   927  02D4  00DF               	movwf	??_main
   928  02D5                     u2000:	
   929  02D5  0016               	moviw fsr1++
   930  02D6  001A               	movwi fsr0++
   931  02D7  0BDF               	decfsz	??_main,f
   932  02D8  2AD5               	goto	u2000
   933  02D9                     l1571:	
   934                           
   935                           ;newmain.c: 70:     TMR0CS = 0;
   936  02D9  0021               	movlb	1	; select bank1
   937  02DA  1295               	bcf	21,5	;volatile
   938  02DB                     l1573:	
   939                           
   940                           ;newmain.c: 71:     TMR0SE = 0;
   941  02DB  1215               	bcf	21,4	;volatile
   942  02DC                     l1575:	
   943                           
   944                           ;newmain.c: 78:     TMR0IE = 1;
   945  02DC  168B               	bsf	11,5	;volatile
   946  02DD                     l1577:	
   947                           
   948                           ;newmain.c: 81:     TRISB7 = 0;
   949  02DD  138D               	bcf	13,7	;volatile
   950  02DE                     l1579:	
   951                           
   952                           ;newmain.c: 82:     RB7 = 0;
   953  02DE  0020               	movlb	0	; select bank0
   954  02DF  138D               	bcf	13,7	;volatile
   955  02E0                     l1581:	
   956                           
   957                           ;newmain.c: 89:         for (j = 0; j < 25; j++) {
   958  02E0  0020               	movlb	0	; select bank0
   959  02E1  01E7               	clrf	main@j
   960  02E2  01E8               	clrf	main@j+1
   961  02E3                     l1587:	
   962                           
   963                           ;newmain.c: 90:             half_period = ((1.0 / notes[j]) * 1000000.0);
   964  02E3  303F               	movlw	63
   965  02E4  0020               	movlb	0	; select bank0
   966  02E5  00A7               	movwf	___fldiv@b+3
   967  02E6  3080               	movlw	128
   968  02E7  00A6               	movwf	___fldiv@b+2
   969  02E8  3000               	movlw	0
   970  02E9  00A5               	movwf	___fldiv@b+1
   971  02EA  3000               	movlw	0
   972  02EB  00A4               	movwf	___fldiv@b
   973  02EC  3567               	lslf	main@j,w
   974  02ED  3EA0               	addlw	(low (main@notes| 0))& (0+255)
   975  02EE  0086               	movwf	6
   976  02EF  0187               	clrf	7
   977  02F0  3F40               	moviw [0]fsr1
   978  02F1  00DF               	movwf	??_main
   979  02F2  3F41               	moviw [1]fsr1
   980  02F3  00E0               	movwf	??_main+1
   981  02F4  085F               	movf	??_main,w
   982  02F5  00F0               	movwf	___xxtofl@val
   983  02F6  0860               	movf	??_main+1,w
   984  02F7  00F1               	movwf	___xxtofl@val+1
   985  02F8  01F2               	clrf	___xxtofl@val+2
   986  02F9  01F3               	clrf	___xxtofl@val+3
   987  02FA  3000               	movlw	0
   988  02FB  3182  2209  3182   	fcall	___xxtofl
   989  02FE  0873               	movf	?___xxtofl+3,w
   990  02FF  0020               	movlb	0	; select bank0
   991  0300  00A3               	movwf	___fldiv@a+3
   992  0301  0872               	movf	?___xxtofl+2,w
   993  0302  00A2               	movwf	___fldiv@a+2
   994  0303  0871               	movf	?___xxtofl+1,w
   995  0304  00A1               	movwf	___fldiv@a+1
   996  0305  0870               	movf	?___xxtofl,w
   997  0306  00A0               	movwf	___fldiv@a
   998  0307  3183  23D5  3182   	fcall	___fldiv
   999  030A  0020               	movlb	0	; select bank0
  1000  030B  0823               	movf	?___fldiv+3,w
  1001  030C  00C1               	movwf	___flmul@a+3
  1002  030D  0822               	movf	?___fldiv+2,w
  1003  030E  00C0               	movwf	___flmul@a+2
  1004  030F  0821               	movf	?___fldiv+1,w
  1005  0310  00BF               	movwf	___flmul@a+1
  1006  0311  0820               	movf	?___fldiv,w
  1007  0312  00BE               	movwf	___flmul@a
  1008  0313  3049               	movlw	73
  1009  0314  00BD               	movwf	___flmul@b+3
  1010  0315  3074               	movlw	116
  1011  0316  00BC               	movwf	___flmul@b+2
  1012  0317  3024               	movlw	36
  1013  0318  00BB               	movwf	___flmul@b+1
  1014  0319  3000               	movlw	0
  1015  031A  00BA               	movwf	___flmul@b
  1016  031B  3185  2589  3182   	fcall	___flmul
  1017  031E  0020               	movlb	0	; select bank0
  1018  031F  083D               	movf	?___flmul+3,w
  1019  0320  00D7               	movwf	___fltol@f1+3
  1020  0321  083C               	movf	?___flmul+2,w
  1021  0322  00D6               	movwf	___fltol@f1+2
  1022  0323  083B               	movf	?___flmul+1,w
  1023  0324  00D5               	movwf	___fltol@f1+1
  1024  0325  083A               	movf	?___flmul,w
  1025  0326  00D4               	movwf	___fltol@f1
  1026  0327  3181  2194  3182   	fcall	___fltol
  1027  032A  0020               	movlb	0	; select bank0
  1028  032B  0855               	movf	?___fltol+1,w
  1029  032C  0021               	movlb	1	; select bank1
  1030  032D  00D3               	movwf	(_half_period+1)^(0+128)	;volatile
  1031  032E  0020               	movlb	0	; select bank0
  1032  032F  0854               	movf	?___fltol,w
  1033  0330  0021               	movlb	1	; select bank1
  1034  0331  00D2               	movwf	_half_period^(0+128)	;volatile
  1035  0332                     l1589:	
  1036                           
  1037                           ;newmain.c: 91:             half_period = half_period / 2 / 21;
  1038  0332  3002               	movlw	2
  1039  0333  00F0               	movwf	___awdiv@divisor
  1040  0334  3000               	movlw	0
  1041  0335  00F1               	movwf	___awdiv@divisor+1
  1042  0336  0853               	movf	(_half_period+1)^(0+128),w	;volatile
  1043  0337  00F3               	movwf	___awdiv@dividend+1
  1044  0338  0852               	movf	_half_period^(0+128),w	;volatile
  1045  0339  00F2               	movwf	___awdiv@dividend
  1046  033A  3181  2135  3182   	fcall	___awdiv
  1047  033D  0871               	movf	?___awdiv+1,w
  1048  033E  0020               	movlb	0	; select bank0
  1049  033F  00E2               	movwf	_main$678+1
  1050  0340  0870               	movf	?___awdiv,w
  1051  0341  00E1               	movwf	_main$678
  1052  0342                     l1591:	
  1053                           
  1054                           ;newmain.c: 91:             half_period = half_period / 2 / 21;
  1055  0342  3015               	movlw	21
  1056  0343  00F0               	movwf	___awdiv@divisor
  1057  0344  3000               	movlw	0
  1058  0345  00F1               	movwf	___awdiv@divisor+1
  1059  0346  0862               	movf	_main$678+1,w
  1060  0347  00F3               	movwf	___awdiv@dividend+1
  1061  0348  0861               	movf	_main$678,w
  1062  0349  00F2               	movwf	___awdiv@dividend
  1063  034A  3181  2135  3182   	fcall	___awdiv
  1064  034D  0871               	movf	?___awdiv+1,w
  1065  034E  0021               	movlb	1	; select bank1
  1066  034F  00D3               	movwf	(_half_period+1)^(0+128)	;volatile
  1067  0350  0870               	movf	?___awdiv,w
  1068  0351  00D2               	movwf	_half_period^(0+128)	;volatile
  1069  0352                     l1593:	
  1070                           
  1071                           ;newmain.c: 93:             for (k = 0; k < interval[j] * 30; k++) {
  1072  0352  0020               	movlb	0	; select bank0
  1073  0353  01E3               	clrf	main@k
  1074  0354  01E4               	clrf	main@k+1
  1075  0355  2B94               	goto	l1605
  1076  0356                     l41:	
  1077                           
  1078                           ;newmain.c: 94:                 RB7 = 1;
  1079  0356  178D               	bsf	13,7	;volatile
  1080  0357                     l1595:	
  1081                           
  1082                           ;newmain.c: 95:                 for (i = 0; i < half_period; i++) {
  1083  0357  01E5               	clrf	main@i
  1084  0358  01E6               	clrf	main@i+1
  1085  0359  2B60               	goto	l42
  1086  035A                     l43:	
  1087                           
  1088                           ;newmain.c: 96:                     _delay((unsigned long)((1)*(4000000/4000000.0)));
  1089  035A  0000               	nop
  1090  035B                     l1597:	
  1091                           
  1092                           ;newmain.c: 97:                 }
  1093  035B  3001               	movlw	1
  1094  035C  0020               	movlb	0	; select bank0
  1095  035D  07E5               	addwf	main@i,f
  1096  035E  3000               	movlw	0
  1097  035F  3DE6               	addwfc	main@i+1,f
  1098  0360                     l42:	
  1099  0360  0866               	movf	main@i+1,w
  1100  0361  3A80               	xorlw	128
  1101  0362  00DF               	movwf	??_main
  1102  0363  0021               	movlb	1	; select bank1
  1103  0364  0853               	movf	(_half_period+1)^(0+128),w	;volatile
  1104  0365  3A80               	xorlw	128
  1105  0366  0020               	movlb	0	; select bank0
  1106  0367  025F               	subwf	??_main,w
  1107  0368  1D03               	skipz
  1108  0369  2B6E               	goto	u2015
  1109  036A  0021               	movlb	1	; select bank1
  1110  036B  0852               	movf	_half_period^(0+128),w	;volatile
  1111  036C  0020               	movlb	0	; select bank0
  1112  036D  0265               	subwf	main@i,w
  1113  036E                     u2015:	
  1114  036E  1C03               	skipc
  1115  036F  2B71               	goto	u2011
  1116  0370  2B72               	goto	u2010
  1117  0371                     u2011:	
  1118  0371  2B5A               	goto	l43
  1119  0372                     u2010:	
  1120  0372                     l44:	
  1121                           
  1122                           ;newmain.c: 98:                 RB7 = 0;
  1123  0372  0020               	movlb	0	; select bank0
  1124  0373  138D               	bcf	13,7	;volatile
  1125  0374                     l1599:	
  1126                           
  1127                           ;newmain.c: 99:                 for (i = 0; i < half_period; i++) {
  1128  0374  01E5               	clrf	main@i
  1129  0375  01E6               	clrf	main@i+1
  1130  0376  2B7D               	goto	l45
  1131  0377                     l46:	
  1132                           
  1133                           ;newmain.c: 100:                     _delay((unsigned long)((1)*(4000000/4000000.0)));
  1134  0377  0000               	nop
  1135  0378                     l1601:	
  1136                           
  1137                           ;newmain.c: 101:                 }
  1138  0378  3001               	movlw	1
  1139  0379  0020               	movlb	0	; select bank0
  1140  037A  07E5               	addwf	main@i,f
  1141  037B  3000               	movlw	0
  1142  037C  3DE6               	addwfc	main@i+1,f
  1143  037D                     l45:	
  1144  037D  0866               	movf	main@i+1,w
  1145  037E  3A80               	xorlw	128
  1146  037F  00DF               	movwf	??_main
  1147  0380  0021               	movlb	1	; select bank1
  1148  0381  0853               	movf	(_half_period+1)^(0+128),w	;volatile
  1149  0382  3A80               	xorlw	128
  1150  0383  0020               	movlb	0	; select bank0
  1151  0384  025F               	subwf	??_main,w
  1152  0385  1D03               	skipz
  1153  0386  2B8B               	goto	u2025
  1154  0387  0021               	movlb	1	; select bank1
  1155  0388  0852               	movf	_half_period^(0+128),w	;volatile
  1156  0389  0020               	movlb	0	; select bank0
  1157  038A  0265               	subwf	main@i,w
  1158  038B                     u2025:	
  1159  038B  1C03               	skipc
  1160  038C  2B8E               	goto	u2021
  1161  038D  2B8F               	goto	u2020
  1162  038E                     u2021:	
  1163  038E  2B77               	goto	l46
  1164  038F                     u2020:	
  1165  038F                     l1603:	
  1166                           
  1167                           ;newmain.c: 102:             }
  1168  038F  3001               	movlw	1
  1169  0390  0020               	movlb	0	; select bank0
  1170  0391  07E3               	addwf	main@k,f
  1171  0392  3000               	movlw	0
  1172  0393  3DE4               	addwfc	main@k+1,f
  1173  0394                     l1605:	
  1174  0394  3567               	lslf	main@j,w
  1175  0395  3E20               	addlw	(low (main@interval| (0+256)))& (0+255)
  1176  0396  0086               	movwf	6
  1177  0397  3001               	movlw	1	; select bank2/3
  1178  0398  0087               	movwf	7
  1179  0399  3F40               	moviw [0]fsr1
  1180  039A  00F0               	movwf	___wmul@multiplier
  1181  039B  3F41               	moviw [1]fsr1
  1182  039C  00F1               	movwf	___wmul@multiplier+1
  1183  039D  301E               	movlw	30
  1184  039E  00F2               	movwf	___wmul@multiplicand
  1185  039F  3000               	movlw	0
  1186  03A0  00F3               	movwf	___wmul@multiplicand+1
  1187  03A1  3180  208F  3182   	fcall	___wmul
  1188  03A4  0871               	movf	?___wmul+1,w
  1189  03A5  0020               	movlb	0	; select bank0
  1190  03A6  0264               	subwf	main@k+1,w
  1191  03A7  1D03               	skipz
  1192  03A8  2BAB               	goto	u2035
  1193  03A9  0870               	movf	?___wmul,w
  1194  03AA  0263               	subwf	main@k,w
  1195  03AB                     u2035:	
  1196  03AB  1C03               	skipc
  1197  03AC  2BAE               	goto	u2031
  1198  03AD  2BAF               	goto	u2030
  1199  03AE                     u2031:	
  1200  03AE  2B56               	goto	l41
  1201  03AF                     u2030:	
  1202  03AF                     l1607:	
  1203                           
  1204                           ;newmain.c: 104:             _delay((unsigned long)((1000)*(4000000/4000000.0)));
  1205  03AF  30C8               	movlw	200
  1206  03B0                     u2057:	
  1207  03B0  3200               	nop2
  1208  03B1  0B89               	decfsz	9,f
  1209  03B2  2BB0               	goto	u2057
  1210                           
  1211                           ;newmain.c: 105:         }
  1212  03B3  3001               	movlw	1
  1213  03B4  0020               	movlb	0	; select bank0
  1214  03B5  07E7               	addwf	main@j,f
  1215  03B6  3000               	movlw	0
  1216  03B7  3DE8               	addwfc	main@j+1,f
  1217  03B8  0868               	movf	main@j+1,w
  1218  03B9  3A80               	xorlw	128
  1219  03BA  00DF               	movwf	??_main
  1220  03BB  3080               	movlw	128
  1221  03BC  025F               	subwf	??_main,w
  1222  03BD  1D03               	skipz
  1223  03BE  2BC1               	goto	u2045
  1224  03BF  3019               	movlw	25
  1225  03C0  0267               	subwf	main@j,w
  1226  03C1                     u2045:	
  1227  03C1  1C03               	skipc
  1228  03C2  2BC4               	goto	u2041
  1229  03C3  2BC5               	goto	u2040
  1230  03C4                     u2041:	
  1231  03C4  2AE3               	goto	l1587
  1232  03C5                     u2040:	
  1233  03C5                     l1609:	
  1234                           
  1235                           ;newmain.c: 107:            _delay((unsigned long)((1000)*(4000000/4000.0)));
  1236  03C5  3006               	movlw	6
  1237  03C6  0020               	movlb	0	; select bank0
  1238  03C7  00E0               	movwf	??_main+1
  1239  03C8  3013               	movlw	19
  1240  03C9  00DF               	movwf	??_main
  1241  03CA  30AD               	movlw	173
  1242  03CB                     u2067:	
  1243  03CB  0B89               	decfsz	9,f
  1244  03CC  2BCB               	goto	u2067
  1245  03CD  0BDF               	decfsz	??_main,f
  1246  03CE  2BCB               	goto	u2067
  1247  03CF  0BE0               	decfsz	??_main+1,f
  1248  03D0  2BCB               	goto	u2067
  1249  03D1  3200               	nop2
  1250  03D2  2AE0               	goto	l1581
  1251  03D3  3180  2802         	ljmp	start
  1252  03D5                     __end_of_main:	
  1253                           
  1254                           	psect	text1
  1255  0209                     __ptext1:	
  1256 ;; *************** function ___xxtofl *****************
  1257 ;; Defined at:
  1258 ;;		line 10 in file "C:\Program Files (x86)\Microchip\xc8\v2.10\pic\sources\c99\common\xxtofl.c"
  1259 ;; Parameters:    Size  Location     Type
  1260 ;;  sign            1    wreg     unsigned char 
  1261 ;;  val             4    0[COMMON] long 
  1262 ;; Auto vars:     Size  Location     Type
  1263 ;;  sign            1    8[COMMON] unsigned char 
  1264 ;;  arg             4   10[COMMON] unsigned long 
  1265 ;;  exp             1    9[COMMON] unsigned char 
  1266 ;; Return value:  Size  Location     Type
  1267 ;;                  4    0[COMMON] unsigned char 
  1268 ;; Registers used:
  1269 ;;		wreg, status,2, status,0
  1270 ;; Tracked objects:
  1271 ;;		On entry : 0/0
  1272 ;;		On exit  : 0/0
  1273 ;;		Unchanged: 0/0
  1274 ;; Data sizes:     COMMON   BANK0   BANK1   BANK2   BANK3   BANK4   BANK5   BANK6
  1275 ;;      Params:         4       0       0       0       0       0       0       0
  1276 ;;      Locals:         6       0       0       0       0       0       0       0
  1277 ;;      Temps:          4       0       0       0       0       0       0       0
  1278 ;;      Totals:        14       0       0       0       0       0       0       0
  1279 ;;Total ram usage:       14 bytes
  1280 ;; Hardware stack levels used:    1
  1281 ;; This function calls:
  1282 ;;		Nothing
  1283 ;; This function is called by:
  1284 ;;		_main
  1285 ;; This function uses a non-reentrant model
  1286 ;;
  1287                           
  1288                           
  1289                           ;psect for function ___xxtofl
  1290  0209                     ___xxtofl:	
  1291                           
  1292                           ;incstack = 0
  1293                           ; Regs used in ___xxtofl: [wreg+status,2+status,0]
  1294                           ;___xxtofl@sign stored from wreg
  1295  0209  00F8               	movwf	___xxtofl@sign
  1296  020A                     l1523:	
  1297  020A  0878               	movf	___xxtofl@sign,w
  1298  020B  1903               	btfsc	3,2
  1299  020C  2A0E               	goto	u1851
  1300  020D  2A0F               	goto	u1850
  1301  020E                     u1851:	
  1302  020E  2A23               	goto	l1529
  1303  020F                     u1850:	
  1304  020F                     l1525:	
  1305  020F  1FF3               	btfss	___xxtofl@val+3,7
  1306  0210  2A12               	goto	u1861
  1307  0211  2A13               	goto	u1860
  1308  0212                     u1861:	
  1309  0212  2A23               	goto	l1529
  1310  0213                     u1860:	
  1311  0213                     l1527:	
  1312  0213  0970               	comf	___xxtofl@val,w
  1313  0214  00FA               	movwf	___xxtofl@arg
  1314  0215  0971               	comf	___xxtofl@val+1,w
  1315  0216  00FB               	movwf	___xxtofl@arg+1
  1316  0217  0972               	comf	___xxtofl@val+2,w
  1317  0218  00FC               	movwf	___xxtofl@arg+2
  1318  0219  0973               	comf	___xxtofl@val+3,w
  1319  021A  00FD               	movwf	___xxtofl@arg+3
  1320  021B  0AFA               	incf	___xxtofl@arg,f
  1321  021C  1903               	skipnz
  1322  021D  0AFB               	incf	___xxtofl@arg+1,f
  1323  021E  1903               	skipnz
  1324  021F  0AFC               	incf	___xxtofl@arg+2,f
  1325  0220  1903               	skipnz
  1326  0221  0AFD               	incf	___xxtofl@arg+3,f
  1327  0222  2A2B               	goto	l636
  1328  0223                     l1529:	
  1329  0223  0873               	movf	___xxtofl@val+3,w
  1330  0224  00FD               	movwf	___xxtofl@arg+3
  1331  0225  0872               	movf	___xxtofl@val+2,w
  1332  0226  00FC               	movwf	___xxtofl@arg+2
  1333  0227  0871               	movf	___xxtofl@val+1,w
  1334  0228  00FB               	movwf	___xxtofl@arg+1
  1335  0229  0870               	movf	___xxtofl@val,w
  1336  022A  00FA               	movwf	___xxtofl@arg
  1337  022B                     l636:	
  1338  022B  0873               	movf	___xxtofl@val+3,w
  1339  022C  0472               	iorwf	___xxtofl@val+2,w
  1340  022D  0471               	iorwf	___xxtofl@val+1,w
  1341  022E  0470               	iorwf	___xxtofl@val,w
  1342  022F  1D03               	skipz
  1343  0230  2A32               	goto	u1871
  1344  0231  2A33               	goto	u1870
  1345  0232                     u1871:	
  1346  0232  2A3C               	goto	l1535
  1347  0233                     u1870:	
  1348  0233                     l1531:	
  1349  0233  3000               	movlw	0
  1350  0234  00F3               	movwf	?___xxtofl+3
  1351  0235  3000               	movlw	0
  1352  0236  00F2               	movwf	?___xxtofl+2
  1353  0237  3000               	movlw	0
  1354  0238  00F1               	movwf	?___xxtofl+1
  1355  0239  3000               	movlw	0
  1356  023A  00F0               	movwf	?___xxtofl
  1357  023B  2AB4               	goto	l638
  1358  023C                     l1535:	
  1359  023C  3096               	movlw	150
  1360  023D  00F4               	movwf	??___xxtofl
  1361  023E  0874               	movf	??___xxtofl,w
  1362  023F  00F9               	movwf	___xxtofl@exp
  1363  0240  2A4C               	goto	l1539
  1364  0241                     l1537:	
  1365  0241  3001               	movlw	1
  1366  0242  00F4               	movwf	??___xxtofl
  1367  0243  0874               	movf	??___xxtofl,w
  1368  0244  07F9               	addwf	___xxtofl@exp,f
  1369  0245  3001               	movlw	1
  1370  0246                     u1885:	
  1371  0246  36FD               	lsrf	___xxtofl@arg+3,f
  1372  0247  0CFC               	rrf	___xxtofl@arg+2,f
  1373  0248  0CFB               	rrf	___xxtofl@arg+1,f
  1374  0249  0CFA               	rrf	___xxtofl@arg,f
  1375  024A  0B89               	decfsz	9,f
  1376  024B  2A46               	goto	u1885
  1377  024C                     l1539:	
  1378  024C  30FE               	movlw	254
  1379  024D  057D               	andwf	___xxtofl@arg+3,w
  1380  024E  1D03               	btfss	3,2
  1381  024F  2A51               	goto	u1891
  1382  0250  2A52               	goto	u1890
  1383  0251                     u1891:	
  1384  0251  2A41               	goto	l1537
  1385  0252                     u1890:	
  1386  0252  2A66               	goto	l642
  1387  0253                     l1541:	
  1388  0253  3001               	movlw	1
  1389  0254  00F4               	movwf	??___xxtofl
  1390  0255  0874               	movf	??___xxtofl,w
  1391  0256  07F9               	addwf	___xxtofl@exp,f
  1392  0257                     l1543:	
  1393  0257  3001               	movlw	1
  1394  0258  07FA               	addwf	___xxtofl@arg,f
  1395  0259  3000               	movlw	0
  1396  025A  3DFB               	addwfc	___xxtofl@arg+1,f
  1397  025B  3000               	movlw	0
  1398  025C  3DFC               	addwfc	___xxtofl@arg+2,f
  1399  025D  3000               	movlw	0
  1400  025E  3DFD               	addwfc	___xxtofl@arg+3,f
  1401  025F                     l1545:	
  1402  025F  3001               	movlw	1
  1403  0260                     u1905:	
  1404  0260  36FD               	lsrf	___xxtofl@arg+3,f
  1405  0261  0CFC               	rrf	___xxtofl@arg+2,f
  1406  0262  0CFB               	rrf	___xxtofl@arg+1,f
  1407  0263  0CFA               	rrf	___xxtofl@arg,f
  1408  0264  0B89               	decfsz	9,f
  1409  0265  2A60               	goto	u1905
  1410  0266                     l642:	
  1411  0266  30FF               	movlw	255
  1412  0267  057D               	andwf	___xxtofl@arg+3,w
  1413  0268  1D03               	btfss	3,2
  1414  0269  2A6B               	goto	u1911
  1415  026A  2A6C               	goto	u1910
  1416  026B                     u1911:	
  1417  026B  2A53               	goto	l1541
  1418  026C                     u1910:	
  1419  026C  2A76               	goto	l1549
  1420  026D                     l1547:	
  1421  026D  3001               	movlw	1
  1422  026E  02F9               	subwf	___xxtofl@exp,f
  1423  026F  3001               	movlw	1
  1424  0270                     u1925:	
  1425  0270  35FA               	lslf	___xxtofl@arg,f
  1426  0271  0DFB               	rlf	___xxtofl@arg+1,f
  1427  0272  0DFC               	rlf	___xxtofl@arg+2,f
  1428  0273  0DFD               	rlf	___xxtofl@arg+3,f
  1429  0274  0B89               	decfsz	9,f
  1430  0275  2A70               	goto	u1925
  1431  0276                     l1549:	
  1432  0276  1BFC               	btfsc	___xxtofl@arg+2,7
  1433  0277  2A79               	goto	u1931
  1434  0278  2A7A               	goto	u1930
  1435  0279                     u1931:	
  1436  0279  2A80               	goto	l649
  1437  027A                     u1930:	
  1438  027A                     l1551:	
  1439  027A  3002               	movlw	2
  1440  027B  0279               	subwf	___xxtofl@exp,w
  1441  027C  1803               	skipnc
  1442  027D  2A7F               	goto	u1941
  1443  027E  2A80               	goto	u1940
  1444  027F                     u1941:	
  1445  027F  2A6D               	goto	l1547
  1446  0280                     u1940:	
  1447  0280                     l649:	
  1448  0280  1879               	btfsc	___xxtofl@exp,0
  1449  0281  2A83               	goto	u1951
  1450  0282  2A84               	goto	u1950
  1451  0283                     u1951:	
  1452  0283  2A8C               	goto	l650
  1453  0284                     u1950:	
  1454  0284                     l1553:	
  1455  0284  30FF               	movlw	255
  1456  0285  05FA               	andwf	___xxtofl@arg,f
  1457  0286  30FF               	movlw	255
  1458  0287  05FB               	andwf	___xxtofl@arg+1,f
  1459  0288  307F               	movlw	127
  1460  0289  05FC               	andwf	___xxtofl@arg+2,f
  1461  028A  30FF               	movlw	255
  1462  028B  05FD               	andwf	___xxtofl@arg+3,f
  1463  028C                     l650:	
  1464  028C  1003               	clrc
  1465  028D  0CF9               	rrf	___xxtofl@exp,f
  1466  028E                     l1555:	
  1467  028E  0879               	movf	___xxtofl@exp,w
  1468  028F  00F4               	movwf	??___xxtofl
  1469  0290  01F5               	clrf	??___xxtofl+1
  1470  0291  01F6               	clrf	??___xxtofl+2
  1471  0292  01F7               	clrf	??___xxtofl+3
  1472  0293  3018               	movlw	24
  1473  0294                     u1965:	
  1474  0294  35F4               	lslf	??___xxtofl,f
  1475  0295  0DF5               	rlf	??___xxtofl+1,f
  1476  0296  0DF6               	rlf	??___xxtofl+2,f
  1477  0297  0DF7               	rlf	??___xxtofl+3,f
  1478  0298                     u1960:	
  1479  0298  0B89               	decfsz	9,f
  1480  0299  2A94               	goto	u1965
  1481  029A  0874               	movf	??___xxtofl,w
  1482  029B  04FA               	iorwf	___xxtofl@arg,f
  1483  029C  0875               	movf	??___xxtofl+1,w
  1484  029D  04FB               	iorwf	___xxtofl@arg+1,f
  1485  029E  0876               	movf	??___xxtofl+2,w
  1486  029F  04FC               	iorwf	___xxtofl@arg+2,f
  1487  02A0  0877               	movf	??___xxtofl+3,w
  1488  02A1  04FD               	iorwf	___xxtofl@arg+3,f
  1489  02A2                     l1557:	
  1490  02A2  0878               	movf	___xxtofl@sign,w
  1491  02A3  1903               	btfsc	3,2
  1492  02A4  2AA6               	goto	u1971
  1493  02A5  2AA7               	goto	u1970
  1494  02A6                     u1971:	
  1495  02A6  2AAC               	goto	l1563
  1496  02A7                     u1970:	
  1497  02A7                     l1559:	
  1498  02A7  1FF3               	btfss	___xxtofl@val+3,7
  1499  02A8  2AAA               	goto	u1981
  1500  02A9  2AAB               	goto	u1980
  1501  02AA                     u1981:	
  1502  02AA  2AAC               	goto	l1563
  1503  02AB                     u1980:	
  1504  02AB                     l1561:	
  1505  02AB  17FD               	bsf	___xxtofl@arg+3,7
  1506  02AC                     l1563:	
  1507  02AC  087D               	movf	___xxtofl@arg+3,w
  1508  02AD  00F3               	movwf	?___xxtofl+3
  1509  02AE  087C               	movf	___xxtofl@arg+2,w
  1510  02AF  00F2               	movwf	?___xxtofl+2
  1511  02B0  087B               	movf	___xxtofl@arg+1,w
  1512  02B1  00F1               	movwf	?___xxtofl+1
  1513  02B2  087A               	movf	___xxtofl@arg,w
  1514  02B3  00F0               	movwf	?___xxtofl
  1515  02B4                     l638:	
  1516  02B4  0008               	return
  1517  02B5                     __end_of___xxtofl:	
  1518                           
  1519                           	psect	text2
  1520  008F                     __ptext2:	
  1521 ;; *************** function ___wmul *****************
  1522 ;; Defined at:
  1523 ;;		line 15 in file "C:\Program Files (x86)\Microchip\xc8\v2.10\pic\sources\c99\common\Umul16.c"
  1524 ;; Parameters:    Size  Location     Type
  1525 ;;  multiplier      2    0[COMMON] unsigned int 
  1526 ;;  multiplicand    2    2[COMMON] unsigned int 
  1527 ;; Auto vars:     Size  Location     Type
  1528 ;;  product         2    4[COMMON] unsigned int 
  1529 ;; Return value:  Size  Location     Type
  1530 ;;                  2    0[COMMON] unsigned int 
  1531 ;; Registers used:
  1532 ;;		wreg, status,2, status,0
  1533 ;; Tracked objects:
  1534 ;;		On entry : 0/0
  1535 ;;		On exit  : 0/0
  1536 ;;		Unchanged: 0/0
  1537 ;; Data sizes:     COMMON   BANK0   BANK1   BANK2   BANK3   BANK4   BANK5   BANK6
  1538 ;;      Params:         4       0       0       0       0       0       0       0
  1539 ;;      Locals:         2       0       0       0       0       0       0       0
  1540 ;;      Temps:          0       0       0       0       0       0       0       0
  1541 ;;      Totals:         6       0       0       0       0       0       0       0
  1542 ;;Total ram usage:        6 bytes
  1543 ;; Hardware stack levels used:    1
  1544 ;; This function calls:
  1545 ;;		Nothing
  1546 ;; This function is called by:
  1547 ;;		_main
  1548 ;; This function uses a non-reentrant model
  1549 ;;
  1550                           
  1551                           
  1552                           ;psect for function ___wmul
  1553  008F                     ___wmul:	
  1554  008F                     l1149:	
  1555                           ;incstack = 0
  1556                           ; Regs used in ___wmul: [wreg+status,2+status,0]
  1557                           
  1558  008F  01F4               	clrf	___wmul@product
  1559  0090  01F5               	clrf	___wmul@product+1
  1560  0091                     l1151:	
  1561  0091  1C70               	btfss	___wmul@multiplier,0
  1562  0092  2894               	goto	u1061
  1563  0093  2895               	goto	u1060
  1564  0094                     u1061:	
  1565  0094  2899               	goto	l201
  1566  0095                     u1060:	
  1567  0095                     l1153:	
  1568  0095  0872               	movf	___wmul@multiplicand,w
  1569  0096  07F4               	addwf	___wmul@product,f
  1570  0097  0873               	movf	___wmul@multiplicand+1,w
  1571  0098  3DF5               	addwfc	___wmul@product+1,f
  1572  0099                     l201:	
  1573  0099  3001               	movlw	1
  1574  009A                     u1075:	
  1575  009A  35F2               	lslf	___wmul@multiplicand,f
  1576  009B  0DF3               	rlf	___wmul@multiplicand+1,f
  1577  009C  0B89               	decfsz	9,f
  1578  009D  289A               	goto	u1075
  1579  009E                     l1155:	
  1580  009E  3001               	movlw	1
  1581  009F                     u1085:	
  1582  009F  36F1               	lsrf	___wmul@multiplier+1,f
  1583  00A0  0CF0               	rrf	___wmul@multiplier,f
  1584  00A1  0B89               	decfsz	9,f
  1585  00A2  289F               	goto	u1085
  1586  00A3                     l1157:	
  1587  00A3  0870               	movf	___wmul@multiplier,w
  1588  00A4  0471               	iorwf	___wmul@multiplier+1,w
  1589  00A5  1D03               	btfss	3,2
  1590  00A6  28A8               	goto	u1091
  1591  00A7  28A9               	goto	u1090
  1592  00A8                     u1091:	
  1593  00A8  2891               	goto	l1151
  1594  00A9                     u1090:	
  1595  00A9                     l1159:	
  1596  00A9  0875               	movf	___wmul@product+1,w
  1597  00AA  00F1               	movwf	?___wmul+1
  1598  00AB  0874               	movf	___wmul@product,w
  1599  00AC  00F0               	movwf	?___wmul
  1600  00AD                     l203:	
  1601  00AD  0008               	return
  1602  00AE                     __end_of___wmul:	
  1603                           
  1604                           	psect	text3
  1605  0194                     __ptext3:	
  1606 ;; *************** function ___fltol *****************
  1607 ;; Defined at:
  1608 ;;		line 43 in file "C:\Program Files (x86)\Microchip\xc8\v2.10\pic\sources\c99\common\fltol.c"
  1609 ;; Parameters:    Size  Location     Type
  1610 ;;  f1              4   52[BANK0 ] unsigned int 
  1611 ;; Auto vars:     Size  Location     Type
  1612 ;;  exp1            1   62[BANK0 ] unsigned char 
  1613 ;;  sign1           1   61[BANK0 ] unsigned char 
  1614 ;; Return value:  Size  Location     Type
  1615 ;;                  4   52[BANK0 ] long 
  1616 ;; Registers used:
  1617 ;;		wreg, status,2, status,0
  1618 ;; Tracked objects:
  1619 ;;		On entry : 0/0
  1620 ;;		On exit  : 0/0
  1621 ;;		Unchanged: 0/0
  1622 ;; Data sizes:     COMMON   BANK0   BANK1   BANK2   BANK3   BANK4   BANK5   BANK6
  1623 ;;      Params:         0       4       0       0       0       0       0       0
  1624 ;;      Locals:         0       2       0       0       0       0       0       0
  1625 ;;      Temps:          0       5       0       0       0       0       0       0
  1626 ;;      Totals:         0      11       0       0       0       0       0       0
  1627 ;;Total ram usage:       11 bytes
  1628 ;; Hardware stack levels used:    1
  1629 ;; This function calls:
  1630 ;;		Nothing
  1631 ;; This function is called by:
  1632 ;;		_main
  1633 ;; This function uses a non-reentrant model
  1634 ;;
  1635                           
  1636                           
  1637                           ;psect for function ___fltol
  1638  0194                     ___fltol:	
  1639  0194                     l1207:	
  1640                           ;incstack = 0
  1641                           ; Regs used in ___fltol: [wreg+status,2+status,0]
  1642                           
  1643  0194  1003               	clrc
  1644  0195  0020               	movlb	0	; select bank0
  1645  0196  0D56               	rlf	___fltol@f1+2,w
  1646  0197  0D57               	rlf	___fltol@f1+3,w
  1647  0198  00D8               	movwf	??___fltol
  1648  0199  0858               	movf	??___fltol,w
  1649  019A  00DE               	movwf	___fltol@exp1
  1650  019B  085E               	movf	___fltol@exp1,w
  1651  019C  1D03               	btfss	3,2
  1652  019D  299F               	goto	u1201
  1653  019E  29A0               	goto	u1200
  1654  019F                     u1201:	
  1655  019F  29A9               	goto	l1213
  1656  01A0                     u1200:	
  1657  01A0                     l1209:	
  1658  01A0  3000               	movlw	0
  1659  01A1  00D7               	movwf	?___fltol+3
  1660  01A2  3000               	movlw	0
  1661  01A3  00D6               	movwf	?___fltol+2
  1662  01A4  3000               	movlw	0
  1663  01A5  00D5               	movwf	?___fltol+1
  1664  01A6  3000               	movlw	0
  1665  01A7  00D4               	movwf	?___fltol
  1666  01A8  2A08               	goto	l395
  1667  01A9                     l1213:	
  1668  01A9  0854               	movf	___fltol@f1,w
  1669  01AA  00D8               	movwf	??___fltol
  1670  01AB  0855               	movf	___fltol@f1+1,w
  1671  01AC  00D9               	movwf	??___fltol+1
  1672  01AD  0856               	movf	___fltol@f1+2,w
  1673  01AE  00DA               	movwf	??___fltol+2
  1674  01AF  0857               	movf	___fltol@f1+3,w
  1675  01B0  00DB               	movwf	??___fltol+3
  1676  01B1  301F               	movlw	31
  1677  01B2                     u1215:	
  1678  01B2  36DB               	lsrf	??___fltol+3,f
  1679  01B3  0CDA               	rrf	??___fltol+2,f
  1680  01B4  0CD9               	rrf	??___fltol+1,f
  1681  01B5  0CD8               	rrf	??___fltol,f
  1682  01B6                     u1210:	
  1683  01B6  0B89               	decfsz	9,f
  1684  01B7  29B2               	goto	u1215
  1685  01B8  0858               	movf	??___fltol,w
  1686  01B9  00DC               	movwf	??___fltol+4
  1687  01BA  085C               	movf	??___fltol+4,w
  1688  01BB  00DD               	movwf	___fltol@sign1
  1689  01BC                     l1215:	
  1690  01BC  17D6               	bsf	___fltol@f1+2,7
  1691  01BD                     l1217:	
  1692  01BD  30FF               	movlw	255
  1693  01BE  05D4               	andwf	___fltol@f1,f
  1694  01BF  30FF               	movlw	255
  1695  01C0  05D5               	andwf	___fltol@f1+1,f
  1696  01C1  30FF               	movlw	255
  1697  01C2  05D6               	andwf	___fltol@f1+2,f
  1698  01C3  3000               	movlw	0
  1699  01C4  05D7               	andwf	___fltol@f1+3,f
  1700  01C5                     l1219:	
  1701  01C5  3096               	movlw	150
  1702  01C6  02DE               	subwf	___fltol@exp1,f
  1703  01C7                     l1221:	
  1704  01C7  1FDE               	btfss	___fltol@exp1,7
  1705  01C8  29CA               	goto	u1221
  1706  01C9  29CB               	goto	u1220
  1707  01CA                     u1221:	
  1708  01CA  29E3               	goto	l1231
  1709  01CB                     u1220:	
  1710  01CB                     l1223:	
  1711  01CB  085E               	movf	___fltol@exp1,w
  1712  01CC  3A80               	xorlw	128
  1713  01CD  3E97               	addlw	151
  1714  01CE  1803               	skipnc
  1715  01CF  29D1               	goto	u1231
  1716  01D0  29D2               	goto	u1230
  1717  01D1                     u1231:	
  1718  01D1  29D3               	goto	l1229
  1719  01D2                     u1230:	
  1720  01D2  29A0               	goto	l1209
  1721  01D3                     l1229:	
  1722  01D3  3001               	movlw	1
  1723  01D4                     u1245:	
  1724  01D4  36D7               	lsrf	___fltol@f1+3,f
  1725  01D5  0CD6               	rrf	___fltol@f1+2,f
  1726  01D6  0CD5               	rrf	___fltol@f1+1,f
  1727  01D7  0CD4               	rrf	___fltol@f1,f
  1728  01D8  0B89               	decfsz	9,f
  1729  01D9  29D4               	goto	u1245
  1730  01DA  3001               	movlw	1
  1731  01DB  00D8               	movwf	??___fltol
  1732  01DC  0858               	movf	??___fltol,w
  1733  01DD  07DE               	addwf	___fltol@exp1,f
  1734  01DE  1D03               	btfss	3,2
  1735  01DF  29E1               	goto	u1251
  1736  01E0  29E2               	goto	u1250
  1737  01E1                     u1251:	
  1738  01E1  29D3               	goto	l1229
  1739  01E2                     u1250:	
  1740  01E2  29F8               	goto	l1239
  1741  01E3                     l1231:	
  1742  01E3  3020               	movlw	32
  1743  01E4  025E               	subwf	___fltol@exp1,w
  1744  01E5  1C03               	skipc
  1745  01E6  29E8               	goto	u1261
  1746  01E7  29E9               	goto	u1260
  1747  01E8                     u1261:	
  1748  01E8  29F3               	goto	l402
  1749  01E9                     u1260:	
  1750  01E9  29A0               	goto	l1209
  1751  01EA                     l1237:	
  1752  01EA  3001               	movlw	1
  1753  01EB                     u1275:	
  1754  01EB  35D4               	lslf	___fltol@f1,f
  1755  01EC  0DD5               	rlf	___fltol@f1+1,f
  1756  01ED  0DD6               	rlf	___fltol@f1+2,f
  1757  01EE  0DD7               	rlf	___fltol@f1+3,f
  1758  01EF  0B89               	decfsz	9,f
  1759  01F0  29EB               	goto	u1275
  1760  01F1  3001               	movlw	1
  1761  01F2  02DE               	subwf	___fltol@exp1,f
  1762  01F3                     l402:	
  1763  01F3  085E               	movf	___fltol@exp1,w
  1764  01F4  1D03               	btfss	3,2
  1765  01F5  29F7               	goto	u1281
  1766  01F6  29F8               	goto	u1280
  1767  01F7                     u1281:	
  1768  01F7  29EA               	goto	l1237
  1769  01F8                     u1280:	
  1770  01F8                     l1239:	
  1771  01F8  085D               	movf	___fltol@sign1,w
  1772  01F9  1903               	btfsc	3,2
  1773  01FA  29FC               	goto	u1291
  1774  01FB  29FD               	goto	u1290
  1775  01FC                     u1291:	
  1776  01FC  2A08               	goto	l405
  1777  01FD                     u1290:	
  1778  01FD                     l1241:	
  1779  01FD  09D4               	comf	___fltol@f1,f
  1780  01FE  09D5               	comf	___fltol@f1+1,f
  1781  01FF  09D6               	comf	___fltol@f1+2,f
  1782  0200  09D7               	comf	___fltol@f1+3,f
  1783  0201  0AD4               	incf	___fltol@f1,f
  1784  0202  1903               	skipnz
  1785  0203  0AD5               	incf	___fltol@f1+1,f
  1786  0204  1903               	skipnz
  1787  0205  0AD6               	incf	___fltol@f1+2,f
  1788  0206  1903               	skipnz
  1789  0207  0AD7               	incf	___fltol@f1+3,f
  1790  0208                     l405:	
  1791  0208                     l395:	
  1792  0208  0008               	return
  1793  0209                     __end_of___fltol:	
  1794                           
  1795                           	psect	text4
  1796  0589                     __ptext4:	
  1797 ;; *************** function ___flmul *****************
  1798 ;; Defined at:
  1799 ;;		line 8 in file "C:\Program Files (x86)\Microchip\xc8\v2.10\pic\sources\c99\common\sprcmul.c"
  1800 ;; Parameters:    Size  Location     Type
  1801 ;;  b               4   26[BANK0 ] long 
  1802 ;;  a               4   30[BANK0 ] long 
  1803 ;; Auto vars:     Size  Location     Type
  1804 ;;  prod            4   46[BANK0 ] struct .
  1805 ;;  grs             4   40[BANK0 ] unsigned long 
  1806 ;;  temp            2   50[BANK0 ] struct .
  1807 ;;  bexp            1   45[BANK0 ] unsigned char 
  1808 ;;  aexp            1   44[BANK0 ] unsigned char 
  1809 ;;  sign            1   39[BANK0 ] unsigned char 
  1810 ;; Return value:  Size  Location     Type
  1811 ;;                  4   26[BANK0 ] unsigned char 
  1812 ;; Registers used:
  1813 ;;		wreg, status,2, status,0, pclath, cstack
  1814 ;; Tracked objects:
  1815 ;;		On entry : 0/0
  1816 ;;		On exit  : 0/0
  1817 ;;		Unchanged: 0/0
  1818 ;; Data sizes:     COMMON   BANK0   BANK1   BANK2   BANK3   BANK4   BANK5   BANK6
  1819 ;;      Params:         0       8       0       0       0       0       0       0
  1820 ;;      Locals:         0      13       0       0       0       0       0       0
  1821 ;;      Temps:          0       5       0       0       0       0       0       0
  1822 ;;      Totals:         0      26       0       0       0       0       0       0
  1823 ;;Total ram usage:       26 bytes
  1824 ;; Hardware stack levels used:    1
  1825 ;; Hardware stack levels required when called:    1
  1826 ;; This function calls:
  1827 ;;		__Umul8_16
  1828 ;; This function is called by:
  1829 ;;		_main
  1830 ;; This function uses a non-reentrant model
  1831 ;;
  1832                           
  1833                           
  1834                           ;psect for function ___flmul
  1835  0589                     ___flmul:	
  1836  0589                     l1383:	
  1837                           ;incstack = 0
  1838                           ; Regs used in ___flmul: [wreg+status,2+status,0+pclath+cstack]
  1839                           
  1840  0589  0020               	movlb	0	; select bank0
  1841  058A  083D               	movf	___flmul@b+3,w
  1842  058B  3980               	andlw	128
  1843  058C  00C2               	movwf	??___flmul
  1844  058D  0842               	movf	??___flmul,w
  1845  058E  00C7               	movwf	___flmul@sign
  1846  058F                     l1385:	
  1847  058F  353D               	lslf	___flmul@b+3,w
  1848  0590  00C2               	movwf	??___flmul
  1849  0591  0842               	movf	??___flmul,w
  1850  0592  00CD               	movwf	___flmul@bexp
  1851  0593                     l1387:	
  1852  0593  1FBC               	btfss	___flmul@b+2,7
  1853  0594  2D96               	goto	u1591
  1854  0595  2D97               	goto	u1590
  1855  0596                     u1591:	
  1856  0596  2D98               	goto	l1391
  1857  0597                     u1590:	
  1858  0597                     l1389:	
  1859  0597  144D               	bsf	___flmul@bexp,0
  1860  0598                     l1391:	
  1861  0598  084D               	movf	___flmul@bexp,w
  1862  0599  1903               	btfsc	3,2
  1863  059A  2D9C               	goto	u1601
  1864  059B  2D9D               	goto	u1600
  1865  059C                     u1601:	
  1866  059C  2DAC               	goto	l1399
  1867  059D                     u1600:	
  1868  059D                     l1393:	
  1869  059D  0A4D               	incf	___flmul@bexp,w
  1870  059E  1D03               	btfss	3,2
  1871  059F  2DA1               	goto	u1611
  1872  05A0  2DA2               	goto	u1610
  1873  05A1                     u1611:	
  1874  05A1  2DAA               	goto	l1397
  1875  05A2                     u1610:	
  1876  05A2                     l1395:	
  1877  05A2  3000               	movlw	0
  1878  05A3  00BD               	movwf	___flmul@b+3
  1879  05A4  3000               	movlw	0
  1880  05A5  00BC               	movwf	___flmul@b+2
  1881  05A6  3000               	movlw	0
  1882  05A7  00BB               	movwf	___flmul@b+1
  1883  05A8  3000               	movlw	0
  1884  05A9  00BA               	movwf	___flmul@b
  1885  05AA                     l1397:	
  1886  05AA  17BC               	bsf	___flmul@b+2,7
  1887  05AB  2DB4               	goto	l1401
  1888  05AC                     l1399:	
  1889  05AC  3000               	movlw	0
  1890  05AD  00BD               	movwf	___flmul@b+3
  1891  05AE  3000               	movlw	0
  1892  05AF  00BC               	movwf	___flmul@b+2
  1893  05B0  3000               	movlw	0
  1894  05B1  00BB               	movwf	___flmul@b+1
  1895  05B2  3000               	movlw	0
  1896  05B3  00BA               	movwf	___flmul@b
  1897  05B4                     l1401:	
  1898  05B4  0841               	movf	___flmul@a+3,w
  1899  05B5  3980               	andlw	128
  1900  05B6  00C2               	movwf	??___flmul
  1901  05B7  0842               	movf	??___flmul,w
  1902  05B8  06C7               	xorwf	___flmul@sign,f
  1903  05B9                     l1403:	
  1904  05B9  3541               	lslf	___flmul@a+3,w
  1905  05BA  00C2               	movwf	??___flmul
  1906  05BB  0842               	movf	??___flmul,w
  1907  05BC  00CC               	movwf	___flmul@aexp
  1908  05BD                     l1405:	
  1909  05BD  1FC0               	btfss	___flmul@a+2,7
  1910  05BE  2DC0               	goto	u1621
  1911  05BF  2DC1               	goto	u1620
  1912  05C0                     u1621:	
  1913  05C0  2DC2               	goto	l1409
  1914  05C1                     u1620:	
  1915  05C1                     l1407:	
  1916  05C1  144C               	bsf	___flmul@aexp,0
  1917  05C2                     l1409:	
  1918  05C2  084C               	movf	___flmul@aexp,w
  1919  05C3  1903               	btfsc	3,2
  1920  05C4  2DC6               	goto	u1631
  1921  05C5  2DC7               	goto	u1630
  1922  05C6                     u1631:	
  1923  05C6  2DD6               	goto	l1417
  1924  05C7                     u1630:	
  1925  05C7                     l1411:	
  1926  05C7  0A4C               	incf	___flmul@aexp,w
  1927  05C8  1D03               	btfss	3,2
  1928  05C9  2DCB               	goto	u1641
  1929  05CA  2DCC               	goto	u1640
  1930  05CB                     u1641:	
  1931  05CB  2DD4               	goto	l1415
  1932  05CC                     u1640:	
  1933  05CC                     l1413:	
  1934  05CC  3000               	movlw	0
  1935  05CD  00C1               	movwf	___flmul@a+3
  1936  05CE  3000               	movlw	0
  1937  05CF  00C0               	movwf	___flmul@a+2
  1938  05D0  3000               	movlw	0
  1939  05D1  00BF               	movwf	___flmul@a+1
  1940  05D2  3000               	movlw	0
  1941  05D3  00BE               	movwf	___flmul@a
  1942  05D4                     l1415:	
  1943  05D4  17C0               	bsf	___flmul@a+2,7
  1944  05D5  2DDE               	goto	l1419
  1945  05D6                     l1417:	
  1946  05D6  3000               	movlw	0
  1947  05D7  00C1               	movwf	___flmul@a+3
  1948  05D8  3000               	movlw	0
  1949  05D9  00C0               	movwf	___flmul@a+2
  1950  05DA  3000               	movlw	0
  1951  05DB  00BF               	movwf	___flmul@a+1
  1952  05DC  3000               	movlw	0
  1953  05DD  00BE               	movwf	___flmul@a
  1954  05DE                     l1419:	
  1955  05DE  084C               	movf	___flmul@aexp,w
  1956  05DF  1903               	btfsc	3,2
  1957  05E0  2DE2               	goto	u1651
  1958  05E1  2DE3               	goto	u1650
  1959  05E2                     u1651:	
  1960  05E2  2DE8               	goto	l1423
  1961  05E3                     u1650:	
  1962  05E3                     l1421:	
  1963  05E3  084D               	movf	___flmul@bexp,w
  1964  05E4  1D03               	btfss	3,2
  1965  05E5  2DE7               	goto	u1661
  1966  05E6  2DE8               	goto	u1660
  1967  05E7                     u1661:	
  1968  05E7  2DF1               	goto	l1427
  1969  05E8                     u1660:	
  1970  05E8                     l1423:	
  1971  05E8  3000               	movlw	0
  1972  05E9  00BD               	movwf	?___flmul+3
  1973  05EA  3000               	movlw	0
  1974  05EB  00BC               	movwf	?___flmul+2
  1975  05EC  3000               	movlw	0
  1976  05ED  00BB               	movwf	?___flmul+1
  1977  05EE  3000               	movlw	0
  1978  05EF  00BA               	movwf	?___flmul
  1979  05F0  2FDF               	goto	l598
  1980  05F1                     l1427:	
  1981  05F1  083A               	movf	___flmul@b,w
  1982  05F2  00C2               	movwf	??___flmul
  1983  05F3  0842               	movf	??___flmul,w
  1984  05F4  00F0               	movwf	__Umul8_16@multiplicand
  1985  05F5  0840               	movf	___flmul@a+2,w
  1986  05F6  3180  20AE  3185   	fcall	__Umul8_16
  1987  05F9  0871               	movf	?__Umul8_16+1,w
  1988  05FA  0020               	movlb	0	; select bank0
  1989  05FB  00D3               	movwf	___flmul@temp+1
  1990  05FC  0870               	movf	?__Umul8_16,w
  1991  05FD  00D2               	movwf	___flmul@temp
  1992  05FE                     l1429:	
  1993  05FE  0852               	movf	___flmul@temp,w
  1994  05FF  00C2               	movwf	??___flmul
  1995  0600  01C3               	clrf	??___flmul+1
  1996  0601  01C4               	clrf	??___flmul+2
  1997  0602  01C5               	clrf	??___flmul+3
  1998  0603  0845               	movf	??___flmul+3,w
  1999  0604  00CB               	movwf	___flmul@grs+3
  2000  0605  0844               	movf	??___flmul+2,w
  2001  0606  00CA               	movwf	___flmul@grs+2
  2002  0607  0843               	movf	??___flmul+1,w
  2003  0608  00C9               	movwf	___flmul@grs+1
  2004  0609  0842               	movf	??___flmul,w
  2005  060A  00C8               	movwf	___flmul@grs
  2006  060B                     l1431:	
  2007  060B  0853               	movf	___flmul@temp+1,w
  2008  060C  00C2               	movwf	??___flmul
  2009  060D  01C3               	clrf	??___flmul+1
  2010  060E  01C4               	clrf	??___flmul+2
  2011  060F  01C5               	clrf	??___flmul+3
  2012  0610  0845               	movf	??___flmul+3,w
  2013  0611  00D1               	movwf	___flmul@prod+3
  2014  0612  0844               	movf	??___flmul+2,w
  2015  0613  00D0               	movwf	___flmul@prod+2
  2016  0614  0843               	movf	??___flmul+1,w
  2017  0615  00CF               	movwf	___flmul@prod+1
  2018  0616  0842               	movf	??___flmul,w
  2019  0617  00CE               	movwf	___flmul@prod
  2020  0618  083B               	movf	___flmul@b+1,w
  2021  0619  00C2               	movwf	??___flmul
  2022  061A  0842               	movf	??___flmul,w
  2023  061B  00F0               	movwf	__Umul8_16@multiplicand
  2024  061C  083F               	movf	___flmul@a+1,w
  2025  061D  3180  20AE  3185   	fcall	__Umul8_16
  2026  0620  0871               	movf	?__Umul8_16+1,w
  2027  0621  0020               	movlb	0	; select bank0
  2028  0622  00D3               	movwf	___flmul@temp+1
  2029  0623  0870               	movf	?__Umul8_16,w
  2030  0624  00D2               	movwf	___flmul@temp
  2031  0625                     l1433:	
  2032  0625  0852               	movf	___flmul@temp,w
  2033  0626  00C2               	movwf	??___flmul
  2034  0627  01C3               	clrf	??___flmul+1
  2035  0628  01C4               	clrf	??___flmul+2
  2036  0629  01C5               	clrf	??___flmul+3
  2037  062A  0842               	movf	??___flmul,w
  2038  062B  07C8               	addwf	___flmul@grs,f
  2039  062C  0843               	movf	??___flmul+1,w
  2040  062D  3DC9               	addwfc	___flmul@grs+1,f
  2041  062E  0844               	movf	??___flmul+2,w
  2042  062F  3DCA               	addwfc	___flmul@grs+2,f
  2043  0630  0845               	movf	??___flmul+3,w
  2044  0631  3DCB               	addwfc	___flmul@grs+3,f
  2045  0632                     l1435:	
  2046  0632  0853               	movf	___flmul@temp+1,w
  2047  0633  00C2               	movwf	??___flmul
  2048  0634  01C3               	clrf	??___flmul+1
  2049  0635  01C4               	clrf	??___flmul+2
  2050  0636  01C5               	clrf	??___flmul+3
  2051  0637  0842               	movf	??___flmul,w
  2052  0638  07CE               	addwf	___flmul@prod,f
  2053  0639  0843               	movf	??___flmul+1,w
  2054  063A  3DCF               	addwfc	___flmul@prod+1,f
  2055  063B  0844               	movf	??___flmul+2,w
  2056  063C  3DD0               	addwfc	___flmul@prod+2,f
  2057  063D  0845               	movf	??___flmul+3,w
  2058  063E  3DD1               	addwfc	___flmul@prod+3,f
  2059  063F  083C               	movf	___flmul@b+2,w
  2060  0640  00C2               	movwf	??___flmul
  2061  0641  0842               	movf	??___flmul,w
  2062  0642  00F0               	movwf	__Umul8_16@multiplicand
  2063  0643  083E               	movf	___flmul@a,w
  2064  0644  3180  20AE  3185   	fcall	__Umul8_16
  2065  0647  0871               	movf	?__Umul8_16+1,w
  2066  0648  0020               	movlb	0	; select bank0
  2067  0649  00D3               	movwf	___flmul@temp+1
  2068  064A  0870               	movf	?__Umul8_16,w
  2069  064B  00D2               	movwf	___flmul@temp
  2070  064C                     l1437:	
  2071  064C  0852               	movf	___flmul@temp,w
  2072  064D  00C2               	movwf	??___flmul
  2073  064E  01C3               	clrf	??___flmul+1
  2074  064F  01C4               	clrf	??___flmul+2
  2075  0650  01C5               	clrf	??___flmul+3
  2076  0651  0842               	movf	??___flmul,w
  2077  0652  07C8               	addwf	___flmul@grs,f
  2078  0653  0843               	movf	??___flmul+1,w
  2079  0654  3DC9               	addwfc	___flmul@grs+1,f
  2080  0655  0844               	movf	??___flmul+2,w
  2081  0656  3DCA               	addwfc	___flmul@grs+2,f
  2082  0657  0845               	movf	??___flmul+3,w
  2083  0658  3DCB               	addwfc	___flmul@grs+3,f
  2084  0659                     l1439:	
  2085  0659  0853               	movf	___flmul@temp+1,w
  2086  065A  00C2               	movwf	??___flmul
  2087  065B  01C3               	clrf	??___flmul+1
  2088  065C  01C4               	clrf	??___flmul+2
  2089  065D  01C5               	clrf	??___flmul+3
  2090  065E  0842               	movf	??___flmul,w
  2091  065F  07CE               	addwf	___flmul@prod,f
  2092  0660  0843               	movf	??___flmul+1,w
  2093  0661  3DCF               	addwfc	___flmul@prod+1,f
  2094  0662  0844               	movf	??___flmul+2,w
  2095  0663  3DD0               	addwfc	___flmul@prod+2,f
  2096  0664  0845               	movf	??___flmul+3,w
  2097  0665  3DD1               	addwfc	___flmul@prod+3,f
  2098  0666                     l1441:	
  2099  0666  3008               	movlw	8
  2100  0667                     u1675:	
  2101  0667  35C8               	lslf	___flmul@grs,f
  2102  0668  0DC9               	rlf	___flmul@grs+1,f
  2103  0669  0DCA               	rlf	___flmul@grs+2,f
  2104  066A  0DCB               	rlf	___flmul@grs+3,f
  2105  066B  0B89               	decfsz	9,f
  2106  066C  2E67               	goto	u1675
  2107  066D                     l1443:	
  2108  066D  083B               	movf	___flmul@b+1,w
  2109  066E  00C2               	movwf	??___flmul
  2110  066F  0842               	movf	??___flmul,w
  2111  0670  00F0               	movwf	__Umul8_16@multiplicand
  2112  0671  083E               	movf	___flmul@a,w
  2113  0672  3180  20AE  3185   	fcall	__Umul8_16
  2114  0675  0871               	movf	?__Umul8_16+1,w
  2115  0676  0020               	movlb	0	; select bank0
  2116  0677  00D3               	movwf	___flmul@temp+1
  2117  0678  0870               	movf	?__Umul8_16,w
  2118  0679  00D2               	movwf	___flmul@temp
  2119  067A                     l1445:	
  2120  067A  0852               	movf	___flmul@temp,w
  2121  067B  07C8               	addwf	___flmul@grs,f
  2122  067C  0853               	movf	___flmul@temp+1,w
  2123  067D  3DC9               	addwfc	___flmul@grs+1,f
  2124  067E  3000               	movlw	0
  2125  067F  3DCA               	addwfc	___flmul@grs+2,f
  2126  0680  3DCB               	addwfc	___flmul@grs+3,f
  2127  0681                     l1447:	
  2128  0681  083A               	movf	___flmul@b,w
  2129  0682  00C2               	movwf	??___flmul
  2130  0683  0842               	movf	??___flmul,w
  2131  0684  00F0               	movwf	__Umul8_16@multiplicand
  2132  0685  083F               	movf	___flmul@a+1,w
  2133  0686  3180  20AE  3185   	fcall	__Umul8_16
  2134  0689  0871               	movf	?__Umul8_16+1,w
  2135  068A  0020               	movlb	0	; select bank0
  2136  068B  00D3               	movwf	___flmul@temp+1
  2137  068C  0870               	movf	?__Umul8_16,w
  2138  068D  00D2               	movwf	___flmul@temp
  2139  068E                     l1449:	
  2140  068E  0852               	movf	___flmul@temp,w
  2141  068F  07C8               	addwf	___flmul@grs,f
  2142  0690  0853               	movf	___flmul@temp+1,w
  2143  0691  3DC9               	addwfc	___flmul@grs+1,f
  2144  0692  3000               	movlw	0
  2145  0693  3DCA               	addwfc	___flmul@grs+2,f
  2146  0694  3DCB               	addwfc	___flmul@grs+3,f
  2147  0695                     l1451:	
  2148  0695  3008               	movlw	8
  2149  0696                     u1685:	
  2150  0696  35C8               	lslf	___flmul@grs,f
  2151  0697  0DC9               	rlf	___flmul@grs+1,f
  2152  0698  0DCA               	rlf	___flmul@grs+2,f
  2153  0699  0DCB               	rlf	___flmul@grs+3,f
  2154  069A  0B89               	decfsz	9,f
  2155  069B  2E96               	goto	u1685
  2156  069C  083A               	movf	___flmul@b,w
  2157  069D  00C2               	movwf	??___flmul
  2158  069E  0842               	movf	??___flmul,w
  2159  069F  00F0               	movwf	__Umul8_16@multiplicand
  2160  06A0  083E               	movf	___flmul@a,w
  2161  06A1  3180  20AE  3185   	fcall	__Umul8_16
  2162  06A4  0871               	movf	?__Umul8_16+1,w
  2163  06A5  0020               	movlb	0	; select bank0
  2164  06A6  00D3               	movwf	___flmul@temp+1
  2165  06A7  0870               	movf	?__Umul8_16,w
  2166  06A8  00D2               	movwf	___flmul@temp
  2167  06A9                     l1453:	
  2168  06A9  0852               	movf	___flmul@temp,w
  2169  06AA  07C8               	addwf	___flmul@grs,f
  2170  06AB  0853               	movf	___flmul@temp+1,w
  2171  06AC  3DC9               	addwfc	___flmul@grs+1,f
  2172  06AD  3000               	movlw	0
  2173  06AE  3DCA               	addwfc	___flmul@grs+2,f
  2174  06AF  3DCB               	addwfc	___flmul@grs+3,f
  2175  06B0                     l1455:	
  2176  06B0  083B               	movf	___flmul@b+1,w
  2177  06B1  00C2               	movwf	??___flmul
  2178  06B2  0842               	movf	??___flmul,w
  2179  06B3  00F0               	movwf	__Umul8_16@multiplicand
  2180  06B4  0840               	movf	___flmul@a+2,w
  2181  06B5  3180  20AE  3185   	fcall	__Umul8_16
  2182  06B8  0871               	movf	?__Umul8_16+1,w
  2183  06B9  0020               	movlb	0	; select bank0
  2184  06BA  00D3               	movwf	___flmul@temp+1
  2185  06BB  0870               	movf	?__Umul8_16,w
  2186  06BC  00D2               	movwf	___flmul@temp
  2187  06BD  0852               	movf	___flmul@temp,w
  2188  06BE  07CE               	addwf	___flmul@prod,f
  2189  06BF  0853               	movf	___flmul@temp+1,w
  2190  06C0  3DCF               	addwfc	___flmul@prod+1,f
  2191  06C1  3000               	movlw	0
  2192  06C2  3DD0               	addwfc	___flmul@prod+2,f
  2193  06C3  3DD1               	addwfc	___flmul@prod+3,f
  2194  06C4                     l1457:	
  2195  06C4  083C               	movf	___flmul@b+2,w
  2196  06C5  00C2               	movwf	??___flmul
  2197  06C6  0842               	movf	??___flmul,w
  2198  06C7  00F0               	movwf	__Umul8_16@multiplicand
  2199  06C8  083F               	movf	___flmul@a+1,w
  2200  06C9  3180  20AE  3185   	fcall	__Umul8_16
  2201  06CC  0871               	movf	?__Umul8_16+1,w
  2202  06CD  0020               	movlb	0	; select bank0
  2203  06CE  00D3               	movwf	___flmul@temp+1
  2204  06CF  0870               	movf	?__Umul8_16,w
  2205  06D0  00D2               	movwf	___flmul@temp
  2206  06D1                     l1459:	
  2207  06D1  0852               	movf	___flmul@temp,w
  2208  06D2  07CE               	addwf	___flmul@prod,f
  2209  06D3  0853               	movf	___flmul@temp+1,w
  2210  06D4  3DCF               	addwfc	___flmul@prod+1,f
  2211  06D5  3000               	movlw	0
  2212  06D6  3DD0               	addwfc	___flmul@prod+2,f
  2213  06D7  3DD1               	addwfc	___flmul@prod+3,f
  2214  06D8  083C               	movf	___flmul@b+2,w
  2215  06D9  00C2               	movwf	??___flmul
  2216  06DA  0842               	movf	??___flmul,w
  2217  06DB  00F0               	movwf	__Umul8_16@multiplicand
  2218  06DC  0840               	movf	___flmul@a+2,w
  2219  06DD  3180  20AE  3185   	fcall	__Umul8_16
  2220  06E0  0871               	movf	?__Umul8_16+1,w
  2221  06E1  0020               	movlb	0	; select bank0
  2222  06E2  00D3               	movwf	___flmul@temp+1
  2223  06E3  0870               	movf	?__Umul8_16,w
  2224  06E4  00D2               	movwf	___flmul@temp
  2225  06E5                     l1461:	
  2226  06E5  0852               	movf	___flmul@temp,w
  2227  06E6  00C2               	movwf	??___flmul
  2228  06E7  0853               	movf	___flmul@temp+1,w
  2229  06E8  00C3               	movwf	??___flmul+1
  2230  06E9  01C4               	clrf	??___flmul+2
  2231  06EA  01C5               	clrf	??___flmul+3
  2232  06EB  3008               	movlw	8
  2233  06EC                     u1695:	
  2234  06EC  35C2               	lslf	??___flmul,f
  2235  06ED  0DC3               	rlf	??___flmul+1,f
  2236  06EE  0DC4               	rlf	??___flmul+2,f
  2237  06EF  0DC5               	rlf	??___flmul+3,f
  2238  06F0                     u1690:	
  2239  06F0  0B89               	decfsz	9,f
  2240  06F1  2EEC               	goto	u1695
  2241  06F2  0842               	movf	??___flmul,w
  2242  06F3  07CE               	addwf	___flmul@prod,f
  2243  06F4  0843               	movf	??___flmul+1,w
  2244  06F5  3DCF               	addwfc	___flmul@prod+1,f
  2245  06F6  0844               	movf	??___flmul+2,w
  2246  06F7  3DD0               	addwfc	___flmul@prod+2,f
  2247  06F8  0845               	movf	??___flmul+3,w
  2248  06F9  3DD1               	addwfc	___flmul@prod+3,f
  2249  06FA                     l1463:	
  2250  06FA  0848               	movf	___flmul@grs,w
  2251  06FB  00C2               	movwf	??___flmul
  2252  06FC  0849               	movf	___flmul@grs+1,w
  2253  06FD  00C3               	movwf	??___flmul+1
  2254  06FE  084A               	movf	___flmul@grs+2,w
  2255  06FF  00C4               	movwf	??___flmul+2
  2256  0700  084B               	movf	___flmul@grs+3,w
  2257  0701  00C5               	movwf	??___flmul+3
  2258  0702  3018               	movlw	24
  2259  0703                     u1705:	
  2260  0703  36C5               	lsrf	??___flmul+3,f
  2261  0704  0CC4               	rrf	??___flmul+2,f
  2262  0705  0CC3               	rrf	??___flmul+1,f
  2263  0706  0CC2               	rrf	??___flmul,f
  2264  0707                     u1700:	
  2265  0707  0B89               	decfsz	9,f
  2266  0708  2F03               	goto	u1705
  2267  0709  0842               	movf	??___flmul,w
  2268  070A  07CE               	addwf	___flmul@prod,f
  2269  070B  0843               	movf	??___flmul+1,w
  2270  070C  3DCF               	addwfc	___flmul@prod+1,f
  2271  070D  0844               	movf	??___flmul+2,w
  2272  070E  3DD0               	addwfc	___flmul@prod+2,f
  2273  070F  0845               	movf	??___flmul+3,w
  2274  0710  3DD1               	addwfc	___flmul@prod+3,f
  2275  0711                     l1465:	
  2276  0711  3008               	movlw	8
  2277  0712                     u1715:	
  2278  0712  35C8               	lslf	___flmul@grs,f
  2279  0713  0DC9               	rlf	___flmul@grs+1,f
  2280  0714  0DCA               	rlf	___flmul@grs+2,f
  2281  0715  0DCB               	rlf	___flmul@grs+3,f
  2282  0716  0B89               	decfsz	9,f
  2283  0717  2F12               	goto	u1715
  2284  0718                     l1467:	
  2285  0718  084D               	movf	___flmul@bexp,w
  2286  0719  074C               	addwf	___flmul@aexp,w
  2287  071A  00C2               	movwf	??___flmul
  2288  071B  01C3               	clrf	??___flmul+1
  2289  071C  0DC3               	rlf	??___flmul+1,f
  2290  071D  0842               	movf	??___flmul,w
  2291  071E  3E82               	addlw	130
  2292  071F  00D2               	movwf	___flmul@temp
  2293  0720  30FF               	movlw	255
  2294  0721  3D43               	addwfc	??___flmul+1,w
  2295  0722  00D3               	movwf	___flmul@temp+1
  2296  0723  2F3B               	goto	l1479
  2297  0724                     l1469:	
  2298  0724  3001               	movlw	1
  2299  0725                     u1725:	
  2300  0725  35CE               	lslf	___flmul@prod,f
  2301  0726  0DCF               	rlf	___flmul@prod+1,f
  2302  0727  0DD0               	rlf	___flmul@prod+2,f
  2303  0728  0DD1               	rlf	___flmul@prod+3,f
  2304  0729  0B89               	decfsz	9,f
  2305  072A  2F25               	goto	u1725
  2306  072B                     l1471:	
  2307  072B  1FCB               	btfss	___flmul@grs+3,7
  2308  072C  2F2E               	goto	u1731
  2309  072D  2F2F               	goto	u1730
  2310  072E                     u1731:	
  2311  072E  2F30               	goto	l1475
  2312  072F                     u1730:	
  2313  072F                     l1473:	
  2314  072F  144E               	bsf	___flmul@prod,0
  2315  0730                     l1475:	
  2316  0730  3001               	movlw	1
  2317  0731                     u1745:	
  2318  0731  35C8               	lslf	___flmul@grs,f
  2319  0732  0DC9               	rlf	___flmul@grs+1,f
  2320  0733  0DCA               	rlf	___flmul@grs+2,f
  2321  0734  0DCB               	rlf	___flmul@grs+3,f
  2322  0735  0B89               	decfsz	9,f
  2323  0736  2F31               	goto	u1745
  2324  0737                     l1477:	
  2325  0737  30FF               	movlw	255
  2326  0738  07D2               	addwf	___flmul@temp,f
  2327  0739  30FF               	movlw	255
  2328  073A  3DD3               	addwfc	___flmul@temp+1,f
  2329  073B                     l1479:	
  2330  073B  1FD0               	btfss	___flmul@prod+2,7
  2331  073C  2F3E               	goto	u1751
  2332  073D  2F3F               	goto	u1750
  2333  073E                     u1751:	
  2334  073E  2F24               	goto	l1469
  2335  073F                     u1750:	
  2336  073F                     l1481:	
  2337  073F  01CC               	clrf	___flmul@aexp
  2338  0740                     l1483:	
  2339  0740  1FCB               	btfss	___flmul@grs+3,7
  2340  0741  2F43               	goto	u1761
  2341  0742  2F44               	goto	u1760
  2342  0743                     u1761:	
  2343  0743  2F60               	goto	l1491
  2344  0744                     u1760:	
  2345  0744                     l1485:	
  2346  0744  30FF               	movlw	255
  2347  0745  0548               	andwf	___flmul@grs,w
  2348  0746  00C2               	movwf	??___flmul
  2349  0747  30FF               	movlw	255
  2350  0748  0549               	andwf	___flmul@grs+1,w
  2351  0749  00C3               	movwf	??___flmul+1
  2352  074A  30FF               	movlw	255
  2353  074B  054A               	andwf	___flmul@grs+2,w
  2354  074C  00C4               	movwf	??___flmul+2
  2355  074D  307F               	movlw	127
  2356  074E  054B               	andwf	___flmul@grs+3,w
  2357  074F  00C5               	movwf	??___flmul+3
  2358  0750  0845               	movf	??___flmul+3,w
  2359  0751  0444               	iorwf	??___flmul+2,w
  2360  0752  0443               	iorwf	??___flmul+1,w
  2361  0753  0442               	iorwf	??___flmul,w
  2362  0754  1903               	skipnz
  2363  0755  2F57               	goto	u1771
  2364  0756  2F58               	goto	u1770
  2365  0757                     u1771:	
  2366  0757  2F5B               	goto	l604
  2367  0758                     u1770:	
  2368  0758                     l1487:	
  2369  0758  01CC               	clrf	___flmul@aexp
  2370  0759  0ACC               	incf	___flmul@aexp,f
  2371  075A  2F60               	goto	l1491
  2372  075B                     l604:	
  2373  075B  1C4E               	btfss	___flmul@prod,0
  2374  075C  2F5E               	goto	u1781
  2375  075D  2F5F               	goto	u1780
  2376  075E                     u1781:	
  2377  075E  2F60               	goto	l1491
  2378  075F                     u1780:	
  2379  075F  2F58               	goto	l1487
  2380  0760                     l1491:	
  2381  0760  084C               	movf	___flmul@aexp,w
  2382  0761  1903               	btfsc	3,2
  2383  0762  2F64               	goto	u1791
  2384  0763  2F65               	goto	u1790
  2385  0764                     u1791:	
  2386  0764  2F8D               	goto	l1501
  2387  0765                     u1790:	
  2388  0765                     l1493:	
  2389  0765  3001               	movlw	1
  2390  0766  07CE               	addwf	___flmul@prod,f
  2391  0767  3000               	movlw	0
  2392  0768  3DCF               	addwfc	___flmul@prod+1,f
  2393  0769  3000               	movlw	0
  2394  076A  3DD0               	addwfc	___flmul@prod+2,f
  2395  076B  3000               	movlw	0
  2396  076C  3DD1               	addwfc	___flmul@prod+3,f
  2397  076D                     l1495:	
  2398  076D  1C51               	btfss	___flmul@prod+3,0
  2399  076E  2F70               	goto	u1801
  2400  076F  2F71               	goto	u1800
  2401  0770                     u1801:	
  2402  0770  2F8D               	goto	l1501
  2403  0771                     u1800:	
  2404  0771                     l1497:	
  2405  0771  084E               	movf	___flmul@prod,w
  2406  0772  00C2               	movwf	??___flmul
  2407  0773  084F               	movf	___flmul@prod+1,w
  2408  0774  00C3               	movwf	??___flmul+1
  2409  0775  0850               	movf	___flmul@prod+2,w
  2410  0776  00C4               	movwf	??___flmul+2
  2411  0777  0851               	movf	___flmul@prod+3,w
  2412  0778  00C5               	movwf	??___flmul+3
  2413  0779  3001               	movlw	1
  2414  077A  00C6               	movwf	??___flmul+4
  2415  077B                     u1815:	
  2416  077B  37C5               	asrf	??___flmul+3,f
  2417  077C  0CC4               	rrf	??___flmul+2,f
  2418  077D  0CC3               	rrf	??___flmul+1,f
  2419  077E  0CC2               	rrf	??___flmul,f
  2420  077F                     u1810:	
  2421  077F  0BC6               	decfsz	??___flmul+4,f
  2422  0780  2F7B               	goto	u1815
  2423  0781  0845               	movf	??___flmul+3,w
  2424  0782  00D1               	movwf	___flmul@prod+3
  2425  0783  0844               	movf	??___flmul+2,w
  2426  0784  00D0               	movwf	___flmul@prod+2
  2427  0785  0843               	movf	??___flmul+1,w
  2428  0786  00CF               	movwf	___flmul@prod+1
  2429  0787  0842               	movf	??___flmul,w
  2430  0788  00CE               	movwf	___flmul@prod
  2431  0789                     l1499:	
  2432  0789  3001               	movlw	1
  2433  078A  07D2               	addwf	___flmul@temp,f
  2434  078B  3000               	movlw	0
  2435  078C  3DD3               	addwfc	___flmul@temp+1,f
  2436  078D                     l1501:	
  2437  078D  0853               	movf	___flmul@temp+1,w
  2438  078E  3A80               	xorlw	128
  2439  078F  00C2               	movwf	??___flmul
  2440  0790  3080               	movlw	128
  2441  0791  0242               	subwf	??___flmul,w
  2442  0792  1D03               	skipz
  2443  0793  2F96               	goto	u1825
  2444  0794  30FF               	movlw	255
  2445  0795  0252               	subwf	___flmul@temp,w
  2446  0796                     u1825:	
  2447  0796  1C03               	skipc
  2448  0797  2F99               	goto	u1821
  2449  0798  2F9A               	goto	u1820
  2450  0799                     u1821:	
  2451  0799  2FA4               	goto	l1505
  2452  079A                     u1820:	
  2453  079A                     l1503:	
  2454  079A  307F               	movlw	127
  2455  079B  0020               	movlb	0	; select bank0
  2456  079C  00D1               	movwf	___flmul@prod+3
  2457  079D  3080               	movlw	128
  2458  079E  00D0               	movwf	___flmul@prod+2
  2459  079F  3000               	movlw	0
  2460  07A0  00CF               	movwf	___flmul@prod+1
  2461  07A1  3000               	movlw	0
  2462  07A2  00CE               	movwf	___flmul@prod
  2463  07A3  2FD3               	goto	l610
  2464  07A4                     l1505:	
  2465  07A4  0020               	movlb	0	; select bank0
  2466  07A5  0853               	movf	___flmul@temp+1,w
  2467  07A6  3A80               	xorlw	128
  2468  07A7  00C2               	movwf	??___flmul
  2469  07A8  3080               	movlw	128
  2470  07A9  0242               	subwf	??___flmul,w
  2471  07AA  1D03               	skipz
  2472  07AB  2FAE               	goto	u1835
  2473  07AC  3001               	movlw	1
  2474  07AD  0252               	subwf	___flmul@temp,w
  2475  07AE                     u1835:	
  2476  07AE  1803               	skipnc
  2477  07AF  2FB1               	goto	u1831
  2478  07B0  2FB2               	goto	u1830
  2479  07B1                     u1831:	
  2480  07B1  2FBD               	goto	l1511
  2481  07B2                     u1830:	
  2482  07B2                     l1507:	
  2483  07B2  3000               	movlw	0
  2484  07B3  0020               	movlb	0	; select bank0
  2485  07B4  00D1               	movwf	___flmul@prod+3
  2486  07B5  3000               	movlw	0
  2487  07B6  00D0               	movwf	___flmul@prod+2
  2488  07B7  3000               	movlw	0
  2489  07B8  00CF               	movwf	___flmul@prod+1
  2490  07B9  3000               	movlw	0
  2491  07BA  00CE               	movwf	___flmul@prod
  2492  07BB                     l1509:	
  2493  07BB  01C7               	clrf	___flmul@sign
  2494  07BC  2FD3               	goto	l610
  2495  07BD                     l1511:	
  2496  07BD  0020               	movlb	0	; select bank0
  2497  07BE  0852               	movf	___flmul@temp,w
  2498  07BF  00C2               	movwf	??___flmul
  2499  07C0  0842               	movf	??___flmul,w
  2500  07C1  00CD               	movwf	___flmul@bexp
  2501  07C2  30FF               	movlw	255
  2502  07C3  05CE               	andwf	___flmul@prod,f
  2503  07C4  30FF               	movlw	255
  2504  07C5  05CF               	andwf	___flmul@prod+1,f
  2505  07C6  307F               	movlw	127
  2506  07C7  05D0               	andwf	___flmul@prod+2,f
  2507  07C8  3000               	movlw	0
  2508  07C9  05D1               	andwf	___flmul@prod+3,f
  2509  07CA                     l1513:	
  2510  07CA  1C4D               	btfss	___flmul@bexp,0
  2511  07CB  2FCD               	goto	u1841
  2512  07CC  2FCE               	goto	u1840
  2513  07CD                     u1841:	
  2514  07CD  2FCF               	goto	l1517
  2515  07CE                     u1840:	
  2516  07CE                     l1515:	
  2517  07CE  17D0               	bsf	___flmul@prod+2,7
  2518  07CF                     l1517:	
  2519  07CF  364D               	lsrf	___flmul@bexp,w
  2520  07D0  00C2               	movwf	??___flmul
  2521  07D1  0842               	movf	??___flmul,w
  2522  07D2  00D1               	movwf	___flmul@prod+3
  2523  07D3                     l610:	
  2524  07D3  0847               	movf	___flmul@sign,w
  2525  07D4  00C2               	movwf	??___flmul
  2526  07D5  0842               	movf	??___flmul,w
  2527  07D6  04D1               	iorwf	___flmul@prod+3,f
  2528  07D7                     l1519:	
  2529  07D7  0851               	movf	___flmul@prod+3,w
  2530  07D8  00BD               	movwf	?___flmul+3
  2531  07D9  0850               	movf	___flmul@prod+2,w
  2532  07DA  00BC               	movwf	?___flmul+2
  2533  07DB  084F               	movf	___flmul@prod+1,w
  2534  07DC  00BB               	movwf	?___flmul+1
  2535  07DD  084E               	movf	___flmul@prod,w
  2536  07DE  00BA               	movwf	?___flmul
  2537  07DF                     l598:	
  2538  07DF  0008               	return
  2539  07E0                     __end_of___flmul:	
  2540                           
  2541                           	psect	text5
  2542  00AE                     __ptext5:	
  2543 ;; *************** function __Umul8_16 *****************
  2544 ;; Defined at:
  2545 ;;		line 4 in file "C:\Program Files (x86)\Microchip\xc8\v2.10\pic\sources\c99\common\Umul8_16.c"
  2546 ;; Parameters:    Size  Location     Type
  2547 ;;  multiplier      1    wreg     unsigned char 
  2548 ;;  multiplicand    1    0[COMMON] unsigned char 
  2549 ;; Auto vars:     Size  Location     Type
  2550 ;;  multiplier      1    8[COMMON] unsigned char 
  2551 ;;  word_mpld       2    6[COMMON] unsigned int 
  2552 ;;  product         2    4[COMMON] unsigned int 
  2553 ;; Return value:  Size  Location     Type
  2554 ;;                  2    0[COMMON] unsigned int 
  2555 ;; Registers used:
  2556 ;;		wreg, status,2, status,0
  2557 ;; Tracked objects:
  2558 ;;		On entry : 0/0
  2559 ;;		On exit  : 0/0
  2560 ;;		Unchanged: 0/0
  2561 ;; Data sizes:     COMMON   BANK0   BANK1   BANK2   BANK3   BANK4   BANK5   BANK6
  2562 ;;      Params:         2       0       0       0       0       0       0       0
  2563 ;;      Locals:         5       0       0       0       0       0       0       0
  2564 ;;      Temps:          2       0       0       0       0       0       0       0
  2565 ;;      Totals:         9       0       0       0       0       0       0       0
  2566 ;;Total ram usage:        9 bytes
  2567 ;; Hardware stack levels used:    1
  2568 ;; This function calls:
  2569 ;;		Nothing
  2570 ;; This function is called by:
  2571 ;;		___flmul
  2572 ;; This function uses a non-reentrant model
  2573 ;;
  2574                           
  2575                           
  2576                           ;psect for function __Umul8_16
  2577  00AE                     __Umul8_16:	
  2578                           
  2579                           ;incstack = 0
  2580                           ; Regs used in __Umul8_16: [wreg+status,2+status,0]
  2581                           ;__Umul8_16@multiplier stored from wreg
  2582  00AE  00F8               	movwf	__Umul8_16@multiplier
  2583  00AF                     l1135:	
  2584  00AF  01F4               	clrf	__Umul8_16@product
  2585  00B0  01F5               	clrf	__Umul8_16@product+1
  2586  00B1                     l1137:	
  2587  00B1  0870               	movf	__Umul8_16@multiplicand,w
  2588  00B2  00F2               	movwf	??__Umul8_16
  2589  00B3  01F3               	clrf	??__Umul8_16+1
  2590  00B4  0872               	movf	??__Umul8_16,w
  2591  00B5  00F6               	movwf	__Umul8_16@word_mpld
  2592  00B6  0873               	movf	??__Umul8_16+1,w
  2593  00B7  00F7               	movwf	__Umul8_16@word_mpld+1
  2594  00B8                     l1139:	
  2595  00B8  1C78               	btfss	__Umul8_16@multiplier,0
  2596  00B9  28BB               	goto	u1031
  2597  00BA  28BC               	goto	u1030
  2598  00BB                     u1031:	
  2599  00BB  28C0               	goto	l655
  2600  00BC                     u1030:	
  2601  00BC                     l1141:	
  2602  00BC  0876               	movf	__Umul8_16@word_mpld,w
  2603  00BD  07F4               	addwf	__Umul8_16@product,f
  2604  00BE  0877               	movf	__Umul8_16@word_mpld+1,w
  2605  00BF  3DF5               	addwfc	__Umul8_16@product+1,f
  2606  00C0                     l655:	
  2607  00C0  3001               	movlw	1
  2608  00C1                     u1045:	
  2609  00C1  35F6               	lslf	__Umul8_16@word_mpld,f
  2610  00C2  0DF7               	rlf	__Umul8_16@word_mpld+1,f
  2611  00C3  0B89               	decfsz	9,f
  2612  00C4  28C1               	goto	u1045
  2613  00C5  1003               	clrc
  2614  00C6  0CF8               	rrf	__Umul8_16@multiplier,f
  2615  00C7                     l1143:	
  2616  00C7  0878               	movf	__Umul8_16@multiplier,w
  2617  00C8  1D03               	btfss	3,2
  2618  00C9  28CB               	goto	u1051
  2619  00CA  28CC               	goto	u1050
  2620  00CB                     u1051:	
  2621  00CB  28B8               	goto	l1139
  2622  00CC                     u1050:	
  2623  00CC                     l1145:	
  2624  00CC  0875               	movf	__Umul8_16@product+1,w
  2625  00CD  00F1               	movwf	?__Umul8_16+1
  2626  00CE  0874               	movf	__Umul8_16@product,w
  2627  00CF  00F0               	movwf	?__Umul8_16
  2628  00D0                     l657:	
  2629  00D0  0008               	return
  2630  00D1                     __end_of__Umul8_16:	
  2631                           
  2632                           	psect	text6
  2633  03D5                     __ptext6:	
  2634 ;; *************** function ___fldiv *****************
  2635 ;; Defined at:
  2636 ;;		line 8 in file "C:\Program Files (x86)\Microchip\xc8\v2.10\pic\sources\c99\common\sprcdiv.c"
  2637 ;; Parameters:    Size  Location     Type
  2638 ;;  a               4    0[BANK0 ] unsigned int 
  2639 ;;  b               4    4[BANK0 ] unsigned int 
  2640 ;; Auto vars:     Size  Location     Type
  2641 ;;  grs             4   20[BANK0 ] unsigned long 
  2642 ;;  rem             4   13[BANK0 ] unsigned long 
  2643 ;;  new_exp         2   18[BANK0 ] int 
  2644 ;;  aexp            1   25[BANK0 ] unsigned char 
  2645 ;;  bexp            1   24[BANK0 ] unsigned char 
  2646 ;;  sign            1   17[BANK0 ] unsigned char 
  2647 ;; Return value:  Size  Location     Type
  2648 ;;                  4    0[BANK0 ] unsigned char 
  2649 ;; Registers used:
  2650 ;;		wreg, status,2, status,0
  2651 ;; Tracked objects:
  2652 ;;		On entry : 0/0
  2653 ;;		On exit  : 0/0
  2654 ;;		Unchanged: 0/0
  2655 ;; Data sizes:     COMMON   BANK0   BANK1   BANK2   BANK3   BANK4   BANK5   BANK6
  2656 ;;      Params:         0       8       0       0       0       0       0       0
  2657 ;;      Locals:         0      13       0       0       0       0       0       0
  2658 ;;      Temps:          0       5       0       0       0       0       0       0
  2659 ;;      Totals:         0      26       0       0       0       0       0       0
  2660 ;;Total ram usage:       26 bytes
  2661 ;; Hardware stack levels used:    1
  2662 ;; This function calls:
  2663 ;;		Nothing
  2664 ;; This function is called by:
  2665 ;;		_main
  2666 ;; This function uses a non-reentrant model
  2667 ;;
  2668                           
  2669                           
  2670                           ;psect for function ___fldiv
  2671  03D5                     ___fldiv:	
  2672  03D5                     l1243:	
  2673                           ;incstack = 0
  2674                           ; Regs used in ___fldiv: [wreg+status,2+status,0]
  2675                           
  2676  03D5  0020               	movlb	0	; select bank0
  2677  03D6  0827               	movf	___fldiv@b+3,w
  2678  03D7  3980               	andlw	128
  2679  03D8  00A8               	movwf	??___fldiv
  2680  03D9  0828               	movf	??___fldiv,w
  2681  03DA  00B1               	movwf	___fldiv@sign
  2682  03DB                     l1245:	
  2683  03DB  3527               	lslf	___fldiv@b+3,w
  2684  03DC  00A8               	movwf	??___fldiv
  2685  03DD  0828               	movf	??___fldiv,w
  2686  03DE  00B8               	movwf	___fldiv@bexp
  2687  03DF                     l1247:	
  2688  03DF  1FA6               	btfss	___fldiv@b+2,7
  2689  03E0  2BE2               	goto	u1301
  2690  03E1  2BE3               	goto	u1300
  2691  03E2                     u1301:	
  2692  03E2  2BE4               	goto	l1251
  2693  03E3                     u1300:	
  2694  03E3                     l1249:	
  2695  03E3  1438               	bsf	___fldiv@bexp,0
  2696  03E4                     l1251:	
  2697  03E4  0838               	movf	___fldiv@bexp,w
  2698  03E5  1903               	btfsc	3,2
  2699  03E6  2BE8               	goto	u1311
  2700  03E7  2BE9               	goto	u1310
  2701  03E8                     u1311:	
  2702  03E8  2BF9               	goto	l1261
  2703  03E9                     u1310:	
  2704  03E9                     l1253:	
  2705  03E9  0A38               	incf	___fldiv@bexp,w
  2706  03EA  1D03               	btfss	3,2
  2707  03EB  2BED               	goto	u1321
  2708  03EC  2BEE               	goto	u1320
  2709  03ED                     u1321:	
  2710  03ED  2BF6               	goto	l1257
  2711  03EE                     u1320:	
  2712  03EE                     l1255:	
  2713  03EE  3000               	movlw	0
  2714  03EF  00A7               	movwf	___fldiv@b+3
  2715  03F0  3000               	movlw	0
  2716  03F1  00A6               	movwf	___fldiv@b+2
  2717  03F2  3000               	movlw	0
  2718  03F3  00A5               	movwf	___fldiv@b+1
  2719  03F4  3000               	movlw	0
  2720  03F5  00A4               	movwf	___fldiv@b
  2721  03F6                     l1257:	
  2722  03F6  17A6               	bsf	___fldiv@b+2,7
  2723  03F7                     l1259:	
  2724  03F7  01A7               	clrf	___fldiv@b+3
  2725  03F8  2C01               	goto	l1263
  2726  03F9                     l1261:	
  2727  03F9  3000               	movlw	0
  2728  03FA  00A7               	movwf	___fldiv@b+3
  2729  03FB  3000               	movlw	0
  2730  03FC  00A6               	movwf	___fldiv@b+2
  2731  03FD  3000               	movlw	0
  2732  03FE  00A5               	movwf	___fldiv@b+1
  2733  03FF  3000               	movlw	0
  2734  0400  00A4               	movwf	___fldiv@b
  2735  0401                     l1263:	
  2736  0401  0823               	movf	___fldiv@a+3,w
  2737  0402  3980               	andlw	128
  2738  0403  00A8               	movwf	??___fldiv
  2739  0404  0828               	movf	??___fldiv,w
  2740  0405  06B1               	xorwf	___fldiv@sign,f
  2741  0406                     l1265:	
  2742  0406  3523               	lslf	___fldiv@a+3,w
  2743  0407  00A8               	movwf	??___fldiv
  2744  0408  0828               	movf	??___fldiv,w
  2745  0409  00B9               	movwf	___fldiv@aexp
  2746  040A                     l1267:	
  2747  040A  1FA2               	btfss	___fldiv@a+2,7
  2748  040B  2C0D               	goto	u1331
  2749  040C  2C0E               	goto	u1330
  2750  040D                     u1331:	
  2751  040D  2C0F               	goto	l1271
  2752  040E                     u1330:	
  2753  040E                     l1269:	
  2754  040E  1439               	bsf	___fldiv@aexp,0
  2755  040F                     l1271:	
  2756  040F  0839               	movf	___fldiv@aexp,w
  2757  0410  1903               	btfsc	3,2
  2758  0411  2C13               	goto	u1341
  2759  0412  2C14               	goto	u1340
  2760  0413                     u1341:	
  2761  0413  2C24               	goto	l1281
  2762  0414                     u1340:	
  2763  0414                     l1273:	
  2764  0414  0A39               	incf	___fldiv@aexp,w
  2765  0415  1D03               	btfss	3,2
  2766  0416  2C18               	goto	u1351
  2767  0417  2C19               	goto	u1350
  2768  0418                     u1351:	
  2769  0418  2C21               	goto	l1277
  2770  0419                     u1350:	
  2771  0419                     l1275:	
  2772  0419  3000               	movlw	0
  2773  041A  00A3               	movwf	___fldiv@a+3
  2774  041B  3000               	movlw	0
  2775  041C  00A2               	movwf	___fldiv@a+2
  2776  041D  3000               	movlw	0
  2777  041E  00A1               	movwf	___fldiv@a+1
  2778  041F  3000               	movlw	0
  2779  0420  00A0               	movwf	___fldiv@a
  2780  0421                     l1277:	
  2781  0421  17A2               	bsf	___fldiv@a+2,7
  2782  0422                     l1279:	
  2783  0422  01A3               	clrf	___fldiv@a+3
  2784  0423  2C2C               	goto	l558
  2785  0424                     l1281:	
  2786  0424  3000               	movlw	0
  2787  0425  00A3               	movwf	___fldiv@a+3
  2788  0426  3000               	movlw	0
  2789  0427  00A2               	movwf	___fldiv@a+2
  2790  0428  3000               	movlw	0
  2791  0429  00A1               	movwf	___fldiv@a+1
  2792  042A  3000               	movlw	0
  2793  042B  00A0               	movwf	___fldiv@a
  2794  042C                     l558:	
  2795  042C  0823               	movf	___fldiv@a+3,w
  2796  042D  0422               	iorwf	___fldiv@a+2,w
  2797  042E  0421               	iorwf	___fldiv@a+1,w
  2798  042F  0420               	iorwf	___fldiv@a,w
  2799  0430  1D03               	skipz
  2800  0431  2C33               	goto	u1361
  2801  0432  2C34               	goto	u1360
  2802  0433                     u1361:	
  2803  0433  2C4D               	goto	l1291
  2804  0434                     u1360:	
  2805  0434                     l1283:	
  2806  0434  3000               	movlw	0
  2807  0435  00A7               	movwf	___fldiv@b+3
  2808  0436  3000               	movlw	0
  2809  0437  00A6               	movwf	___fldiv@b+2
  2810  0438  3000               	movlw	0
  2811  0439  00A5               	movwf	___fldiv@b+1
  2812  043A  3000               	movlw	0
  2813  043B  00A4               	movwf	___fldiv@b
  2814  043C  3080               	movlw	128
  2815  043D  04A6               	iorwf	___fldiv@b+2,f
  2816  043E  307F               	movlw	127
  2817  043F  04A7               	iorwf	___fldiv@b+3,f
  2818  0440                     l1285:	
  2819  0440  0831               	movf	___fldiv@sign,w
  2820  0441  00A8               	movwf	??___fldiv
  2821  0442  0828               	movf	??___fldiv,w
  2822  0443  04A7               	iorwf	___fldiv@b+3,f
  2823  0444                     l1287:	
  2824  0444  0827               	movf	___fldiv@b+3,w
  2825  0445  00A3               	movwf	?___fldiv+3
  2826  0446  0826               	movf	___fldiv@b+2,w
  2827  0447  00A2               	movwf	?___fldiv+2
  2828  0448  0825               	movf	___fldiv@b+1,w
  2829  0449  00A1               	movwf	?___fldiv+1
  2830  044A  0824               	movf	___fldiv@b,w
  2831  044B  00A0               	movwf	?___fldiv
  2832  044C  2D88               	goto	l560
  2833  044D                     l1291:	
  2834  044D  0838               	movf	___fldiv@bexp,w
  2835  044E  1D03               	btfss	3,2
  2836  044F  2C51               	goto	u1371
  2837  0450  2C52               	goto	u1370
  2838  0451                     u1371:	
  2839  0451  2C5B               	goto	l1297
  2840  0452                     u1370:	
  2841  0452                     l1293:	
  2842  0452  3000               	movlw	0
  2843  0453  00A3               	movwf	?___fldiv+3
  2844  0454  3000               	movlw	0
  2845  0455  00A2               	movwf	?___fldiv+2
  2846  0456  3000               	movlw	0
  2847  0457  00A1               	movwf	?___fldiv+1
  2848  0458  3000               	movlw	0
  2849  0459  00A0               	movwf	?___fldiv
  2850  045A  2D88               	goto	l560
  2851  045B                     l1297:	
  2852  045B  0838               	movf	___fldiv@bexp,w
  2853  045C  00A8               	movwf	??___fldiv
  2854  045D  01A9               	clrf	??___fldiv+1
  2855  045E  0829               	movf	??___fldiv+1,w
  2856  045F  00AB               	movwf	??___fldiv+3
  2857  0460  0839               	movf	___fldiv@aexp,w
  2858  0461  0228               	subwf	??___fldiv,w
  2859  0462  00AA               	movwf	??___fldiv+2
  2860  0463  1C03               	skipc
  2861  0464  03AB               	decf	??___fldiv+3,f
  2862  0465  082A               	movf	??___fldiv+2,w
  2863  0466  3E7F               	addlw	127
  2864  0467  00B2               	movwf	___fldiv@new_exp
  2865  0468  3000               	movlw	0
  2866  0469  3D2B               	addwfc	??___fldiv+3,w
  2867  046A  00B3               	movwf	___fldiv@new_exp+1
  2868  046B                     l1299:	
  2869  046B  0827               	movf	___fldiv@b+3,w
  2870  046C  00B0               	movwf	___fldiv@rem+3
  2871  046D  0826               	movf	___fldiv@b+2,w
  2872  046E  00AF               	movwf	___fldiv@rem+2
  2873  046F  0825               	movf	___fldiv@b+1,w
  2874  0470  00AE               	movwf	___fldiv@rem+1
  2875  0471  0824               	movf	___fldiv@b,w
  2876  0472  00AD               	movwf	___fldiv@rem
  2877  0473                     l1301:	
  2878  0473  3000               	movlw	0
  2879  0474  00A7               	movwf	___fldiv@b+3
  2880  0475  3000               	movlw	0
  2881  0476  00A6               	movwf	___fldiv@b+2
  2882  0477  3000               	movlw	0
  2883  0478  00A5               	movwf	___fldiv@b+1
  2884  0479  3000               	movlw	0
  2885  047A  00A4               	movwf	___fldiv@b
  2886  047B                     l1303:	
  2887  047B  3000               	movlw	0
  2888  047C  00B7               	movwf	___fldiv@grs+3
  2889  047D  3000               	movlw	0
  2890  047E  00B6               	movwf	___fldiv@grs+2
  2891  047F  3000               	movlw	0
  2892  0480  00B5               	movwf	___fldiv@grs+1
  2893  0481  3000               	movlw	0
  2894  0482  00B4               	movwf	___fldiv@grs
  2895  0483                     l1305:	
  2896  0483  01B9               	clrf	___fldiv@aexp
  2897  0484  2CC3               	goto	l1325
  2898  0485                     l1307:	
  2899  0485  0839               	movf	___fldiv@aexp,w
  2900  0486  1903               	btfsc	3,2
  2901  0487  2C89               	goto	u1381
  2902  0488  2C8A               	goto	u1380
  2903  0489                     u1381:	
  2904  0489  2CA4               	goto	l1317
  2905  048A                     u1380:	
  2906  048A                     l1309:	
  2907  048A  3001               	movlw	1
  2908  048B                     u1395:	
  2909  048B  35AD               	lslf	___fldiv@rem,f
  2910  048C  0DAE               	rlf	___fldiv@rem+1,f
  2911  048D  0DAF               	rlf	___fldiv@rem+2,f
  2912  048E  0DB0               	rlf	___fldiv@rem+3,f
  2913  048F  0B89               	decfsz	9,f
  2914  0490  2C8B               	goto	u1395
  2915  0491  3001               	movlw	1
  2916  0492                     u1405:	
  2917  0492  35A4               	lslf	___fldiv@b,f
  2918  0493  0DA5               	rlf	___fldiv@b+1,f
  2919  0494  0DA6               	rlf	___fldiv@b+2,f
  2920  0495  0DA7               	rlf	___fldiv@b+3,f
  2921  0496  0B89               	decfsz	9,f
  2922  0497  2C92               	goto	u1405
  2923  0498                     l1311:	
  2924  0498  1FB7               	btfss	___fldiv@grs+3,7
  2925  0499  2C9B               	goto	u1411
  2926  049A  2C9C               	goto	u1410
  2927  049B                     u1411:	
  2928  049B  2C9D               	goto	l1315
  2929  049C                     u1410:	
  2930  049C                     l1313:	
  2931  049C  1424               	bsf	___fldiv@b,0
  2932  049D                     l1315:	
  2933  049D  3001               	movlw	1
  2934  049E                     u1425:	
  2935  049E  35B4               	lslf	___fldiv@grs,f
  2936  049F  0DB5               	rlf	___fldiv@grs+1,f
  2937  04A0  0DB6               	rlf	___fldiv@grs+2,f
  2938  04A1  0DB7               	rlf	___fldiv@grs+3,f
  2939  04A2  0B89               	decfsz	9,f
  2940  04A3  2C9E               	goto	u1425
  2941  04A4                     l1317:	
  2942  04A4  0823               	movf	___fldiv@a+3,w
  2943  04A5  0230               	subwf	___fldiv@rem+3,w
  2944  04A6  1D03               	skipz
  2945  04A7  2CB2               	goto	u1435
  2946  04A8  0822               	movf	___fldiv@a+2,w
  2947  04A9  022F               	subwf	___fldiv@rem+2,w
  2948  04AA  1D03               	skipz
  2949  04AB  2CB2               	goto	u1435
  2950  04AC  0821               	movf	___fldiv@a+1,w
  2951  04AD  022E               	subwf	___fldiv@rem+1,w
  2952  04AE  1D03               	skipz
  2953  04AF  2CB2               	goto	u1435
  2954  04B0  0820               	movf	___fldiv@a,w
  2955  04B1  022D               	subwf	___fldiv@rem,w
  2956  04B2                     u1435:	
  2957  04B2  1C03               	skipc
  2958  04B3  2CB5               	goto	u1431
  2959  04B4  2CB6               	goto	u1430
  2960  04B5                     u1431:	
  2961  04B5  2CBF               	goto	l1323
  2962  04B6                     u1430:	
  2963  04B6                     l1319:	
  2964  04B6  1737               	bsf	___fldiv@grs+3,6
  2965  04B7                     l1321:	
  2966  04B7  0820               	movf	___fldiv@a,w
  2967  04B8  02AD               	subwf	___fldiv@rem,f
  2968  04B9  0821               	movf	___fldiv@a+1,w
  2969  04BA  3BAE               	subwfb	___fldiv@rem+1,f
  2970  04BB  0822               	movf	___fldiv@a+2,w
  2971  04BC  3BAF               	subwfb	___fldiv@rem+2,f
  2972  04BD  0823               	movf	___fldiv@a+3,w
  2973  04BE  3BB0               	subwfb	___fldiv@rem+3,f
  2974  04BF                     l1323:	
  2975  04BF  3001               	movlw	1
  2976  04C0  00A8               	movwf	??___fldiv
  2977  04C1  0828               	movf	??___fldiv,w
  2978  04C2  07B9               	addwf	___fldiv@aexp,f
  2979  04C3                     l1325:	
  2980  04C3  301A               	movlw	26
  2981  04C4  0239               	subwf	___fldiv@aexp,w
  2982  04C5  1C03               	skipc
  2983  04C6  2CC8               	goto	u1441
  2984  04C7  2CC9               	goto	u1440
  2985  04C8                     u1441:	
  2986  04C8  2C85               	goto	l1307
  2987  04C9                     u1440:	
  2988  04C9                     l1327:	
  2989  04C9  0830               	movf	___fldiv@rem+3,w
  2990  04CA  042F               	iorwf	___fldiv@rem+2,w
  2991  04CB  042E               	iorwf	___fldiv@rem+1,w
  2992  04CC  042D               	iorwf	___fldiv@rem,w
  2993  04CD  1903               	skipnz
  2994  04CE  2CD0               	goto	u1451
  2995  04CF  2CD1               	goto	u1450
  2996  04D0                     u1451:	
  2997  04D0  2CEA               	goto	l1341
  2998  04D1                     u1450:	
  2999  04D1                     l1329:	
  3000  04D1  1434               	bsf	___fldiv@grs,0
  3001  04D2  2CEA               	goto	l1341
  3002  04D3                     l1331:	
  3003  04D3  3001               	movlw	1
  3004  04D4                     u1465:	
  3005  04D4  35A4               	lslf	___fldiv@b,f
  3006  04D5  0DA5               	rlf	___fldiv@b+1,f
  3007  04D6  0DA6               	rlf	___fldiv@b+2,f
  3008  04D7  0DA7               	rlf	___fldiv@b+3,f
  3009  04D8  0B89               	decfsz	9,f
  3010  04D9  2CD4               	goto	u1465
  3011  04DA                     l1333:	
  3012  04DA  1FB7               	btfss	___fldiv@grs+3,7
  3013  04DB  2CDD               	goto	u1471
  3014  04DC  2CDE               	goto	u1470
  3015  04DD                     u1471:	
  3016  04DD  2CDF               	goto	l1337
  3017  04DE                     u1470:	
  3018  04DE                     l1335:	
  3019  04DE  1424               	bsf	___fldiv@b,0
  3020  04DF                     l1337:	
  3021  04DF  3001               	movlw	1
  3022  04E0                     u1485:	
  3023  04E0  35B4               	lslf	___fldiv@grs,f
  3024  04E1  0DB5               	rlf	___fldiv@grs+1,f
  3025  04E2  0DB6               	rlf	___fldiv@grs+2,f
  3026  04E3  0DB7               	rlf	___fldiv@grs+3,f
  3027  04E4  0B89               	decfsz	9,f
  3028  04E5  2CE0               	goto	u1485
  3029  04E6                     l1339:	
  3030  04E6  30FF               	movlw	255
  3031  04E7  07B2               	addwf	___fldiv@new_exp,f
  3032  04E8  30FF               	movlw	255
  3033  04E9  3DB3               	addwfc	___fldiv@new_exp+1,f
  3034  04EA                     l1341:	
  3035  04EA  1FA6               	btfss	___fldiv@b+2,7
  3036  04EB  2CED               	goto	u1491
  3037  04EC  2CEE               	goto	u1490
  3038  04ED                     u1491:	
  3039  04ED  2CD3               	goto	l1331
  3040  04EE                     u1490:	
  3041  04EE                     l1343:	
  3042  04EE  01B9               	clrf	___fldiv@aexp
  3043  04EF                     l1345:	
  3044  04EF  1FB7               	btfss	___fldiv@grs+3,7
  3045  04F0  2CF2               	goto	u1501
  3046  04F1  2CF3               	goto	u1500
  3047  04F2                     u1501:	
  3048  04F2  2D0F               	goto	l1353
  3049  04F3                     u1500:	
  3050  04F3                     l1347:	
  3051  04F3  30FF               	movlw	255
  3052  04F4  0534               	andwf	___fldiv@grs,w
  3053  04F5  00A8               	movwf	??___fldiv
  3054  04F6  30FF               	movlw	255
  3055  04F7  0535               	andwf	___fldiv@grs+1,w
  3056  04F8  00A9               	movwf	??___fldiv+1
  3057  04F9  30FF               	movlw	255
  3058  04FA  0536               	andwf	___fldiv@grs+2,w
  3059  04FB  00AA               	movwf	??___fldiv+2
  3060  04FC  307F               	movlw	127
  3061  04FD  0537               	andwf	___fldiv@grs+3,w
  3062  04FE  00AB               	movwf	??___fldiv+3
  3063  04FF  082B               	movf	??___fldiv+3,w
  3064  0500  042A               	iorwf	??___fldiv+2,w
  3065  0501  0429               	iorwf	??___fldiv+1,w
  3066  0502  0428               	iorwf	??___fldiv,w
  3067  0503  1903               	skipnz
  3068  0504  2D06               	goto	u1511
  3069  0505  2D07               	goto	u1510
  3070  0506                     u1511:	
  3071  0506  2D0A               	goto	l574
  3072  0507                     u1510:	
  3073  0507                     l1349:	
  3074  0507  01B9               	clrf	___fldiv@aexp
  3075  0508  0AB9               	incf	___fldiv@aexp,f
  3076  0509  2D0F               	goto	l1353
  3077  050A                     l574:	
  3078  050A  1C24               	btfss	___fldiv@b,0
  3079  050B  2D0D               	goto	u1521
  3080  050C  2D0E               	goto	u1520
  3081  050D                     u1521:	
  3082  050D  2D0F               	goto	l1353
  3083  050E                     u1520:	
  3084  050E  2D07               	goto	l1349
  3085  050F                     l1353:	
  3086  050F  0839               	movf	___fldiv@aexp,w
  3087  0510  1903               	btfsc	3,2
  3088  0511  2D13               	goto	u1531
  3089  0512  2D14               	goto	u1530
  3090  0513                     u1531:	
  3091  0513  2D3C               	goto	l1363
  3092  0514                     u1530:	
  3093  0514                     l1355:	
  3094  0514  3001               	movlw	1
  3095  0515  07A4               	addwf	___fldiv@b,f
  3096  0516  3000               	movlw	0
  3097  0517  3DA5               	addwfc	___fldiv@b+1,f
  3098  0518  3000               	movlw	0
  3099  0519  3DA6               	addwfc	___fldiv@b+2,f
  3100  051A  3000               	movlw	0
  3101  051B  3DA7               	addwfc	___fldiv@b+3,f
  3102  051C                     l1357:	
  3103  051C  1C27               	btfss	___fldiv@b+3,0
  3104  051D  2D1F               	goto	u1541
  3105  051E  2D20               	goto	u1540
  3106  051F                     u1541:	
  3107  051F  2D3C               	goto	l1363
  3108  0520                     u1540:	
  3109  0520                     l1359:	
  3110  0520  0824               	movf	___fldiv@b,w
  3111  0521  00A8               	movwf	??___fldiv
  3112  0522  0825               	movf	___fldiv@b+1,w
  3113  0523  00A9               	movwf	??___fldiv+1
  3114  0524  0826               	movf	___fldiv@b+2,w
  3115  0525  00AA               	movwf	??___fldiv+2
  3116  0526  0827               	movf	___fldiv@b+3,w
  3117  0527  00AB               	movwf	??___fldiv+3
  3118  0528  3001               	movlw	1
  3119  0529  00AC               	movwf	??___fldiv+4
  3120  052A                     u1555:	
  3121  052A  37AB               	asrf	??___fldiv+3,f
  3122  052B  0CAA               	rrf	??___fldiv+2,f
  3123  052C  0CA9               	rrf	??___fldiv+1,f
  3124  052D  0CA8               	rrf	??___fldiv,f
  3125  052E                     u1550:	
  3126  052E  0BAC               	decfsz	??___fldiv+4,f
  3127  052F  2D2A               	goto	u1555
  3128  0530  082B               	movf	??___fldiv+3,w
  3129  0531  00A7               	movwf	___fldiv@b+3
  3130  0532  082A               	movf	??___fldiv+2,w
  3131  0533  00A6               	movwf	___fldiv@b+2
  3132  0534  0829               	movf	??___fldiv+1,w
  3133  0535  00A5               	movwf	___fldiv@b+1
  3134  0536  0828               	movf	??___fldiv,w
  3135  0537  00A4               	movwf	___fldiv@b
  3136  0538                     l1361:	
  3137  0538  3001               	movlw	1
  3138  0539  07B2               	addwf	___fldiv@new_exp,f
  3139  053A  3000               	movlw	0
  3140  053B  3DB3               	addwfc	___fldiv@new_exp+1,f
  3141  053C                     l1363:	
  3142  053C  0833               	movf	___fldiv@new_exp+1,w
  3143  053D  3A80               	xorlw	128
  3144  053E  00A8               	movwf	??___fldiv
  3145  053F  3080               	movlw	128
  3146  0540  0228               	subwf	??___fldiv,w
  3147  0541  1D03               	skipz
  3148  0542  2D45               	goto	u1565
  3149  0543  30FF               	movlw	255
  3150  0544  0232               	subwf	___fldiv@new_exp,w
  3151  0545                     u1565:	
  3152  0545  1C03               	skipc
  3153  0546  2D48               	goto	u1561
  3154  0547  2D49               	goto	u1560
  3155  0548                     u1561:	
  3156  0548  2D56               	goto	l579
  3157  0549                     u1560:	
  3158  0549                     l1365:	
  3159  0549  30FF               	movlw	255
  3160  054A  0020               	movlb	0	; select bank0
  3161  054B  00B2               	movwf	___fldiv@new_exp
  3162  054C  3000               	movlw	0
  3163  054D  00B3               	movwf	___fldiv@new_exp+1
  3164  054E  3000               	movlw	0
  3165  054F  00A7               	movwf	___fldiv@b+3
  3166  0550  3000               	movlw	0
  3167  0551  00A6               	movwf	___fldiv@b+2
  3168  0552  3000               	movlw	0
  3169  0553  00A5               	movwf	___fldiv@b+1
  3170  0554  3000               	movlw	0
  3171  0555  00A4               	movwf	___fldiv@b
  3172  0556                     l579:	
  3173  0556  0020               	movlb	0	; select bank0
  3174  0557  0833               	movf	___fldiv@new_exp+1,w
  3175  0558  3A80               	xorlw	128
  3176  0559  00A8               	movwf	??___fldiv
  3177  055A  3080               	movlw	128
  3178  055B  0228               	subwf	??___fldiv,w
  3179  055C  1D03               	skipz
  3180  055D  2D60               	goto	u1575
  3181  055E  3001               	movlw	1
  3182  055F  0232               	subwf	___fldiv@new_exp,w
  3183  0560                     u1575:	
  3184  0560  1803               	skipnc
  3185  0561  2D63               	goto	u1571
  3186  0562  2D64               	goto	u1570
  3187  0563                     u1571:	
  3188  0563  2D70               	goto	l580
  3189  0564                     u1570:	
  3190  0564                     l1367:	
  3191  0564  0020               	movlb	0	; select bank0
  3192  0565  01B2               	clrf	___fldiv@new_exp
  3193  0566  01B3               	clrf	___fldiv@new_exp+1
  3194  0567                     l1369:	
  3195  0567  3000               	movlw	0
  3196  0568  00A7               	movwf	___fldiv@b+3
  3197  0569  3000               	movlw	0
  3198  056A  00A6               	movwf	___fldiv@b+2
  3199  056B  3000               	movlw	0
  3200  056C  00A5               	movwf	___fldiv@b+1
  3201  056D  3000               	movlw	0
  3202  056E  00A4               	movwf	___fldiv@b
  3203  056F                     l1371:	
  3204  056F  01B1               	clrf	___fldiv@sign
  3205  0570                     l580:	
  3206  0570  0020               	movlb	0	; select bank0
  3207  0571  0832               	movf	___fldiv@new_exp,w
  3208  0572  00A8               	movwf	??___fldiv
  3209  0573  0828               	movf	??___fldiv,w
  3210  0574  00B8               	movwf	___fldiv@bexp
  3211  0575                     l1373:	
  3212  0575  1C38               	btfss	___fldiv@bexp,0
  3213  0576  2D78               	goto	u1581
  3214  0577  2D79               	goto	u1580
  3215  0578                     u1581:	
  3216  0578  2D7B               	goto	l1377
  3217  0579                     u1580:	
  3218  0579                     l1375:	
  3219  0579  17A6               	bsf	___fldiv@b+2,7
  3220  057A  2D7F               	goto	l582
  3221  057B                     l1377:	
  3222  057B  307F               	movlw	127
  3223  057C  00A8               	movwf	??___fldiv
  3224  057D  0828               	movf	??___fldiv,w
  3225  057E  05A6               	andwf	___fldiv@b+2,f
  3226  057F                     l582:	
  3227  057F  3638               	lsrf	___fldiv@bexp,w
  3228  0580  00A8               	movwf	??___fldiv
  3229  0581  0828               	movf	??___fldiv,w
  3230  0582  00A7               	movwf	___fldiv@b+3
  3231  0583  0831               	movf	___fldiv@sign,w
  3232  0584  00A8               	movwf	??___fldiv
  3233  0585  0828               	movf	??___fldiv,w
  3234  0586  04A7               	iorwf	___fldiv@b+3,f
  3235  0587  2C44               	goto	l1287
  3236  0588                     l560:	
  3237  0588  0008               	return
  3238  0589                     __end_of___fldiv:	
  3239                           
  3240                           	psect	text7
  3241  0135                     __ptext7:	
  3242 ;; *************** function ___awdiv *****************
  3243 ;; Defined at:
  3244 ;;		line 5 in file "C:\Program Files (x86)\Microchip\xc8\v2.10\pic\sources\c99\common\awdiv.c"
  3245 ;; Parameters:    Size  Location     Type
  3246 ;;  divisor         2    0[COMMON] int 
  3247 ;;  dividend        2    2[COMMON] int 
  3248 ;; Auto vars:     Size  Location     Type
  3249 ;;  quotient        2    7[COMMON] int 
  3250 ;;  sign            1    6[COMMON] unsigned char 
  3251 ;;  counter         1    5[COMMON] unsigned char 
  3252 ;; Return value:  Size  Location     Type
  3253 ;;                  2    0[COMMON] int 
  3254 ;; Registers used:
  3255 ;;		wreg, status,2, status,0
  3256 ;; Tracked objects:
  3257 ;;		On entry : 0/0
  3258 ;;		On exit  : 0/0
  3259 ;;		Unchanged: 0/0
  3260 ;; Data sizes:     COMMON   BANK0   BANK1   BANK2   BANK3   BANK4   BANK5   BANK6
  3261 ;;      Params:         4       0       0       0       0       0       0       0
  3262 ;;      Locals:         4       0       0       0       0       0       0       0
  3263 ;;      Temps:          1       0       0       0       0       0       0       0
  3264 ;;      Totals:         9       0       0       0       0       0       0       0
  3265 ;;Total ram usage:        9 bytes
  3266 ;; Hardware stack levels used:    1
  3267 ;; This function calls:
  3268 ;;		Nothing
  3269 ;; This function is called by:
  3270 ;;		_main
  3271 ;; This function uses a non-reentrant model
  3272 ;;
  3273                           
  3274                           
  3275                           ;psect for function ___awdiv
  3276  0135                     ___awdiv:	
  3277  0135                     l1163:	
  3278                           ;incstack = 0
  3279                           ; Regs used in ___awdiv: [wreg+status,2+status,0]
  3280                           
  3281  0135  01F6               	clrf	___awdiv@sign
  3282  0136                     l1165:	
  3283  0136  1FF1               	btfss	___awdiv@divisor+1,7
  3284  0137  2939               	goto	u1101
  3285  0138  293A               	goto	u1100
  3286  0139                     u1101:	
  3287  0139  2941               	goto	l1171
  3288  013A                     u1100:	
  3289  013A                     l1167:	
  3290  013A  09F0               	comf	___awdiv@divisor,f
  3291  013B  09F1               	comf	___awdiv@divisor+1,f
  3292  013C  0AF0               	incf	___awdiv@divisor,f
  3293  013D  1903               	skipnz
  3294  013E  0AF1               	incf	___awdiv@divisor+1,f
  3295  013F                     l1169:	
  3296  013F  01F6               	clrf	___awdiv@sign
  3297  0140  0AF6               	incf	___awdiv@sign,f
  3298  0141                     l1171:	
  3299  0141  1FF3               	btfss	___awdiv@dividend+1,7
  3300  0142  2944               	goto	u1111
  3301  0143  2945               	goto	u1110
  3302  0144                     u1111:	
  3303  0144  294E               	goto	l1177
  3304  0145                     u1110:	
  3305  0145                     l1173:	
  3306  0145  09F2               	comf	___awdiv@dividend,f
  3307  0146  09F3               	comf	___awdiv@dividend+1,f
  3308  0147  0AF2               	incf	___awdiv@dividend,f
  3309  0148  1903               	skipnz
  3310  0149  0AF3               	incf	___awdiv@dividend+1,f
  3311  014A                     l1175:	
  3312  014A  3001               	movlw	1
  3313  014B  00F4               	movwf	??___awdiv
  3314  014C  0874               	movf	??___awdiv,w
  3315  014D  06F6               	xorwf	___awdiv@sign,f
  3316  014E                     l1177:	
  3317  014E  01F7               	clrf	___awdiv@quotient
  3318  014F  01F8               	clrf	___awdiv@quotient+1
  3319  0150                     l1179:	
  3320  0150  0870               	movf	___awdiv@divisor,w
  3321  0151  0471               	iorwf	___awdiv@divisor+1,w
  3322  0152  1903               	btfsc	3,2
  3323  0153  2955               	goto	u1121
  3324  0154  2956               	goto	u1120
  3325  0155                     u1121:	
  3326  0155  2985               	goto	l1199
  3327  0156                     u1120:	
  3328  0156                     l1181:	
  3329  0156  01F5               	clrf	___awdiv@counter
  3330  0157  0AF5               	incf	___awdiv@counter,f
  3331  0158  2962               	goto	l1187
  3332  0159                     l1183:	
  3333  0159  3001               	movlw	1
  3334  015A                     u1135:	
  3335  015A  35F0               	lslf	___awdiv@divisor,f
  3336  015B  0DF1               	rlf	___awdiv@divisor+1,f
  3337  015C  0B89               	decfsz	9,f
  3338  015D  295A               	goto	u1135
  3339  015E                     l1185:	
  3340  015E  3001               	movlw	1
  3341  015F  00F4               	movwf	??___awdiv
  3342  0160  0874               	movf	??___awdiv,w
  3343  0161  07F5               	addwf	___awdiv@counter,f
  3344  0162                     l1187:	
  3345  0162  1FF1               	btfss	___awdiv@divisor+1,7
  3346  0163  2965               	goto	u1141
  3347  0164  2966               	goto	u1140
  3348  0165                     u1141:	
  3349  0165  2959               	goto	l1183
  3350  0166                     u1140:	
  3351  0166                     l1189:	
  3352  0166  3001               	movlw	1
  3353  0167                     u1155:	
  3354  0167  35F7               	lslf	___awdiv@quotient,f
  3355  0168  0DF8               	rlf	___awdiv@quotient+1,f
  3356  0169  0B89               	decfsz	9,f
  3357  016A  2967               	goto	u1155
  3358  016B  0871               	movf	___awdiv@divisor+1,w
  3359  016C  0273               	subwf	___awdiv@dividend+1,w
  3360  016D  1D03               	skipz
  3361  016E  2971               	goto	u1165
  3362  016F  0870               	movf	___awdiv@divisor,w
  3363  0170  0272               	subwf	___awdiv@dividend,w
  3364  0171                     u1165:	
  3365  0171  1C03               	skipc
  3366  0172  2974               	goto	u1161
  3367  0173  2975               	goto	u1160
  3368  0174                     u1161:	
  3369  0174  297A               	goto	l1195
  3370  0175                     u1160:	
  3371  0175                     l1191:	
  3372  0175  0870               	movf	___awdiv@divisor,w
  3373  0176  02F2               	subwf	___awdiv@dividend,f
  3374  0177  0871               	movf	___awdiv@divisor+1,w
  3375  0178  3BF3               	subwfb	___awdiv@dividend+1,f
  3376  0179                     l1193:	
  3377  0179  1477               	bsf	___awdiv@quotient,0
  3378  017A                     l1195:	
  3379  017A  3001               	movlw	1
  3380  017B                     u1175:	
  3381  017B  36F1               	lsrf	___awdiv@divisor+1,f
  3382  017C  0CF0               	rrf	___awdiv@divisor,f
  3383  017D  0B89               	decfsz	9,f
  3384  017E  297B               	goto	u1175
  3385  017F                     l1197:	
  3386  017F  3001               	movlw	1
  3387  0180  02F5               	subwf	___awdiv@counter,f
  3388  0181  1D03               	btfss	3,2
  3389  0182  2984               	goto	u1181
  3390  0183  2985               	goto	u1180
  3391  0184                     u1181:	
  3392  0184  2966               	goto	l1189
  3393  0185                     u1180:	
  3394  0185                     l1199:	
  3395  0185  0876               	movf	___awdiv@sign,w
  3396  0186  1903               	btfsc	3,2
  3397  0187  2989               	goto	u1191
  3398  0188  298A               	goto	u1190
  3399  0189                     u1191:	
  3400  0189  298F               	goto	l1203
  3401  018A                     u1190:	
  3402  018A                     l1201:	
  3403  018A  09F7               	comf	___awdiv@quotient,f
  3404  018B  09F8               	comf	___awdiv@quotient+1,f
  3405  018C  0AF7               	incf	___awdiv@quotient,f
  3406  018D  1903               	skipnz
  3407  018E  0AF8               	incf	___awdiv@quotient+1,f
  3408  018F                     l1203:	
  3409  018F  0878               	movf	___awdiv@quotient+1,w
  3410  0190  00F1               	movwf	?___awdiv+1
  3411  0191  0877               	movf	___awdiv@quotient,w
  3412  0192  00F0               	movwf	?___awdiv
  3413  0193                     l354:	
  3414  0193  0008               	return
  3415  0194                     __end_of___awdiv:	
  3416  007E                     btemp	set	126	;btemp
  3417  007E                     wtemp0	set	126


Data Sizes:
    Strings     0
    Constant    0
    Data        100
    BSS         4
    Persistent  32
    Stack       0

Auto Spaces:
    Space          Size  Autos    Used
    COMMON           14     14      14
    BANK0            80     73      75
    BANK1            80     50      52
    BANK2            80     50      50
    BANK3            80      0      50
    BANK4            80      0      50
    BANK5            80      0       0
    BANK6            16      0       0

Pointer List with Targets:

    None.

Critical Paths under _main in COMMON

    _main->___xxtofl
    ___fltol->___xxtofl
    ___flmul->___xxtofl
    ___fldiv->___xxtofl

Critical Paths under _main in BANK0

    _main->___fltol
    ___fltol->___flmul
    ___flmul->___fldiv

Critical Paths under _main in BANK1

    None.

Critical Paths under _main in BANK2

    None.

Critical Paths under _main in BANK3

    None.

Critical Paths under _main in BANK4

    None.

Critical Paths under _main in BANK5

    None.

Critical Paths under _main in BANK6

    None.

Call Graph Tables:

 ---------------------------------------------------------------------------------
 (Depth) Function   	        Calls       Base Space   Used Autos Params    Refs
 ---------------------------------------------------------------------------------
 (0) _main                                               110   110      0    5474
                                             63 BANK0     10    10      0
                                              0 BANK1     50    50      0
                                              0 BANK2     50    50      0
                            ___awdiv
                            ___fldiv
                            ___flmul
                            ___fltol
                             ___wmul
                           ___xxtofl
 ---------------------------------------------------------------------------------
 (1) ___xxtofl                                            14    10      4     398
                                              0 COMMON    14    10      4
 ---------------------------------------------------------------------------------
 (1) ___wmul                                               6     2      4     244
                                              0 COMMON     6     2      4
 ---------------------------------------------------------------------------------
 (1) ___fltol                                             11     7      4     305
                                             52 BANK0     11     7      4
                            ___fldiv (ARG)
                            ___flmul (ARG)
                           ___xxtofl (ARG)
 ---------------------------------------------------------------------------------
 (1) ___flmul                                             26    18      8    2417
                                             26 BANK0     26    18      8
                          __Umul8_16
                            ___fldiv (ARG)
                           ___xxtofl (ARG)
 ---------------------------------------------------------------------------------
 (2) __Umul8_16                                            9     7      2     799
                                              0 COMMON     9     7      2
 ---------------------------------------------------------------------------------
 (1) ___fldiv                                             26    18      8    1273
                                              0 BANK0     26    18      8
                           ___xxtofl (ARG)
 ---------------------------------------------------------------------------------
 (1) ___awdiv                                              9     5      4     604
                                              0 COMMON     9     5      4
 ---------------------------------------------------------------------------------
 Estimated maximum stack depth 2
 ---------------------------------------------------------------------------------

 Call Graph Graphs:

 _main (ROOT)
   ___awdiv
   ___fldiv
     ___xxtofl (ARG)
   ___flmul
     __Umul8_16
     ___fldiv (ARG)
       ___xxtofl (ARG)
     ___xxtofl (ARG)
   ___fltol
     ___fldiv (ARG)
       ___xxtofl (ARG)
     ___flmul (ARG)
       __Umul8_16
       ___fldiv (ARG)
         ___xxtofl (ARG)
       ___xxtofl (ARG)
     ___xxtofl (ARG)
   ___wmul
   ___xxtofl

 Address spaces:
Name               Size   Autos  Total    Cost      Usage
BIGRAM             1F0      0       0       0        0.0%
EEDATA             100      0       0       0        0.0%
NULL                 0      0       0       0        0.0%
CODE                 0      0       0       0        0.0%
BITCOMMON            E      0       0       1        0.0%
BITSFR0              0      0       0       1        0.0%
SFR0                 0      0       0       1        0.0%
COMMON               E      E       E       2      100.0%
BITSFR1              0      0       0       2        0.0%
SFR1                 0      0       0       2        0.0%
BITSFR2              0      0       0       3        0.0%
SFR2                 0      0       0       3        0.0%
STACK                0      0       0       3        0.0%
BITSFR3              0      0       0       4        0.0%
SFR3                 0      0       0       4        0.0%
ABS                  0      0     123       4        0.0%
BITBANK0            50      0       0       5        0.0%
BITSFR4              0      0       0       5        0.0%
SFR4                 0      0       0       5        0.0%
BANK0               50     49      4B       6       93.8%
BITSFR5              0      0       0       6        0.0%
SFR5                 0      0       0       6        0.0%
BITBANK1            50      0       0       7        0.0%
BITSFR6              0      0       0       7        0.0%
SFR6                 0      0       0       7        0.0%
BANK1               50     32      34       8       65.0%
BITSFR7              0      0       0       8        0.0%
SFR7                 0      0       0       8        0.0%
BITBANK2            50      0       0       9        0.0%
BITSFR8              0      0       0       9        0.0%
SFR8                 0      0       0       9        0.0%
BANK2               50     32      32      10       62.5%
BITSFR9              0      0       0      10        0.0%
SFR9                 0      0       0      10        0.0%
BITBANK3            50      0       0      11        0.0%
BITSFR10             0      0       0      11        0.0%
SFR10                0      0       0      11        0.0%
BANK3               50      0      32      12       62.5%
BITSFR11             0      0       0      12        0.0%
SFR11                0      0       0      12        0.0%
BITBANK4            50      0       0      13        0.0%
BITSFR12             0      0       0      13        0.0%
SFR12                0      0       0      13        0.0%
BANK4               50      0      32      14       62.5%
BITSFR13             0      0       0      14        0.0%
SFR13                0      0       0      14        0.0%
BITBANK5            50      0       0      15        0.0%
BITSFR14             0      0       0      15        0.0%
SFR14                0      0       0      15        0.0%
BANK5               50      0       0      16        0.0%
BITSFR15             0      0       0      16        0.0%
SFR15                0      0       0      16        0.0%
BITBANK6            10      0       0      17        0.0%
BITSFR16             0      0       0      17        0.0%
SFR16                0      0       0      17        0.0%
BANK6               10      0       0      18        0.0%
BITSFR17             0      0       0      18        0.0%
SFR17                0      0       0      18        0.0%
BITSFR18             0      0       0      19        0.0%
SFR18                0      0       0      19        0.0%
DATA                 0      0     123      19        0.0%
BITSFR19             0      0       0      20        0.0%
SFR19                0      0       0      20        0.0%
BITSFR20             0      0       0      21        0.0%
SFR20                0      0       0      21        0.0%
BITSFR21             0      0       0      22        0.0%
SFR21                0      0       0      22        0.0%
BITSFR22             0      0       0      23        0.0%
SFR22                0      0       0      23        0.0%
BITSFR23             0      0       0      24        0.0%
SFR23                0      0       0      24        0.0%
BITSFR24             0      0       0      25        0.0%
SFR24                0      0       0      25        0.0%
BITSFR25             0      0       0      26        0.0%
SFR25                0      0       0      26        0.0%
BITSFR26             0      0       0      27        0.0%
SFR26                0      0       0      27        0.0%
BITSFR27             0      0       0      28        0.0%
SFR27                0      0       0      28        0.0%
BITSFR28             0      0       0      29        0.0%
SFR28                0      0       0      29        0.0%
BITSFR29             0      0       0      30        0.0%
SFR29                0      0       0      30        0.0%
BITSFR30             0      0       0      31        0.0%
SFR30                0      0       0      31        0.0%
BITSFR31             0      0       0      32        0.0%
SFR31                0      0       0      32        0.0%


Microchip Technology PIC Macro Assembler V2.10 build 88905656 
Symbol Table                                                                                   Sun Nov 17 19:16:36 2019

           ___fldiv@aexp 0039             ___fldiv@bexp 0038             ___fldiv@sign 0031  
            __CFG_CP$OFF 0000                       l41 0356                       l42 0360  
                     l43 035A                       l44 0372                       l45 037D  
                     l46 0377             ___awdiv@sign 0076      ___wmul@multiplicand 0072  
    __Umul8_16@word_mpld 0076              __CFG_LVP$ON 0000                      l201 0099  
                    l203 00AD                      l402 01F3                      l405 0208  
                    l354 0193                      l610 07D3                      l604 075B  
                    l560 0588                      l650 028C                      l642 0266  
                    l395 0208                      l580 0570                      l636 022B  
                    l582 057F                      l574 050A                      l558 042C  
                    l638 02B4                      l655 00C0                      l657 00D0  
                    l649 0280                      l579 0556                      l598 07DF  
                    _RB7 006F             __CFG_CPD$OFF 0000             __CFG_BORV$LO 0000  
                    wreg 0009             __CFG_IESO$ON 0000             ___flmul@aexp 004C  
           ___flmul@bexp 004D             ___flmul@sign 0047             ___flmul@temp 0052  
           ___flmul@prod 004E             ___fltol@exp1 005E                     l1201 018A  
                   l1203 018F                     l1301 0473                     l1141 00BC  
                   l1221 01C7                     l1213 01A9                     l1311 0498  
                   l1303 047B                     l1143 00C7                     l1135 00AF  
                   l1223 01CB                     l1231 01E3                     l1215 01BC  
                   l1207 0194                     l1151 0091                     l1321 04B7  
                   l1313 049C                     l1305 0483                     l1145 00CC  
                   l1137 00B1                     l1401 05B4                     l1241 01FD  
                   l1217 01BD                     l1209 01A0                     l1153 0095  
                   l1171 0141                     l1163 0135                     l1331 04D3  
                   l1323 04BF                     l1315 049D                     l1307 0485  
                   l1251 03E4                     l1243 03D5                     l1139 00B8  
                   l1411 05C7                     l1403 05B9                     l1219 01C5  
                   l1155 009E                     l1181 0156                     l1173 0145  
                   l1165 0136                     l1333 04DA                     l1341 04EA  
                   l1309 048A                     l1317 04A4                     l1325 04C3  
                   l1253 03E9                     l1261 03F9                     l1245 03DB  
                   l1501 078D                     l1421 05E3                     l1413 05CC  
                   l1405 05BD                     l1237 01EA                     l1229 01D3  
                   l1157 00A3                     l1149 008F                     l1191 0175  
                   l1183 0159                     l1175 014A                     l1167 013A  
                   l1343 04EE                     l1335 04DE                     l1327 04C9  
                   l1319 04B6                     l1271 040F                     l1263 0401  
                   l1255 03EE                     l1247 03DF                     l1511 07BD  
                   l1503 079A                     l1431 060B                     l1423 05E8  
                   l1415 05D4                     l1407 05C1                     l1239 01F8  
                   l1159 00A9                     l1193 0179                     l1185 015E  
                   l1177 014E                     l1169 013F                     l1361 0538  
                   l1353 050F                     l1345 04EF                     l1337 04DF  
                   l1329 04D1                     l1273 0414                     l1281 0424  
                   l1265 0406                     l1257 03F6                     l1249 03E3  
                   l1513 07CA                     l1505 07A4                     l1441 0666  
                   l1433 0625                     l1417 05D6                     l1409 05C2  
                   l1601 0378                     l1195 017A                     l1187 0162  
                   l1179 0150                     l1371 056F                     l1355 0514  
                   l1363 053C                     l1347 04F3                     l1339 04E6  
                   l1283 0434                     l1291 044D                     l1275 0419  
                   l1267 040A                     l1259 03F7                     l1515 07CE  
                   l1507 07B2                     l1451 0695                     l1443 066D  
                   l1435 0632                     l1427 05F1                     l1419 05DE  
                   l1531 0233                     l1523 020A                     l1603 038F  
                   l1197 017F                     l1189 0166                     l1373 0575  
                   l1365 0549                     l1357 051C                     l1349 0507  
                   l1293 0452                     l1285 0440                     l1277 0421  
                   l1269 040E                     l1517 07CF                     l1509 07BB  
                   l1461 06E5                     l1453 06A9                     l1445 067A  
                   l1437 064C                     l1429 05FE                     l1541 0253  
                   l1525 020F                     l1605 0394                     l1199 0185  
                   l1375 0579                     l1367 0564                     l1359 0520  
                   l1287 0444                     l1279 0422                     l1519 07D7  
                   l1471 072B                     l1463 06FA                     l1455 06B0  
                   l1447 0681                     l1439 0659                     l1391 0598  
                   l1383 0589                     l1551 027A                     l1543 0257  
                   l1535 023C                     l1527 0213                     l1607 03AF  
                   l1377 057B                     l1369 0567                     l1297 045B  
                   l1481 073F                     l1473 072F                     l1465 0711  
                   l1457 06C4                     l1449 068E                     l1393 059D  
                   l1385 058F                     l1561 02AB                     l1553 0284  
                   l1545 025F                     l1537 0241                     l1529 0223  
                   l1609 03C5                     l1299 046B                     l1491 0760  
                   l1483 0740                     l1475 0730                     l1467 0718  
                   l1459 06D1                     l1395 05A2                     l1387 0593  
                   l1563 02AC                     l1555 028E                     l1547 026D  
                   l1539 024C                     l1571 02D9                     l1493 0765  
                   l1485 0744                     l1477 0737                     l1469 0724  
                   l1397 05AA                     l1389 0597                     l1557 02A2  
                   l1549 0276                     l1581 02E0                     l1573 02DB  
                   l1495 076D                     l1487 0758                     l1479 073B  
                   l1399 05AC                     l1559 02A7                     l1591 0342  
                   l1575 02DC                     l1567 02B5                     l1497 0771  
                   l1593 0352                     l1577 02DD                     l1569 02BC  
                   l1499 0789                     l1595 0357                     l1587 02E3  
                   l1579 02DE                     l1597 035B                     l1589 0332  
                   l1599 0374                     u1100 013A                     u1101 0139  
                   u1110 0145                     u1030 00BC                     u1111 0144  
                   u1031 00BB                     u1120 0156                     u1200 01A0  
                   u2000 02D5                     u1121 0155                     u1201 019F  
                   u1050 00CC                     u1210 01B6                     u2010 0372  
                   u1051 00CB                     u2011 0371                     u1140 0166  
                   u1300 03E3                     u1220 01CB                     u1060 0095  
                   u2020 038F                     u1141 0165                     u1301 03E2  
                   u1045 00C1                     u1221 01CA                     u1061 0094  
                   u2021 038E                     u1310 03E9                     u1230 01D2  
                   u2030 03AF                     u1135 015A                     u1311 03E8  
                   u1231 01D1                     u1215 01B2                     u2031 03AE  
                   u2015 036E                     u1160 0175                     u1320 03EE  
                   u2040 03C5                     u1161 0174                     u1321 03ED  
                   u2041 03C4                     u2025 038B                     u1410 049C  
                   u1330 040E                     u1250 01E2                     u1090 00A9  
                   u1155 0167                     u1411 049B                     u1331 040D  
                   u1251 01E1                     u1091 00A8                     u1075 009A  
                   u2035 03AB                     u1180 0185                     u1500 04F3  
                   u1340 0414                     u1260 01E9                     u1181 0184  
                   u1165 0171                     u1501 04F2                     u1405 0492  
                   u1341 0413                     u1261 01E8                     u1245 01D4  
                   u1085 009F                     u2045 03C1                     u1190 018A  
                   u1510 0507                     u1430 04B6                     u1350 0419  
                   u1191 0189                     u1175 017B                     u1511 0506  
                   u1431 04B5                     u1351 0418                     u1520 050E  
                   u1440 04C9                     u1360 0434                     u1600 059D  
                   u1280 01F8                     u1521 050D                     u1441 04C8  
                   u1425 049E                     u1361 0433                     u1601 059C  
                   u1281 01F7                     u2057 03B0                     u1530 0514  
                   u1450 04D1                     u1370 0452                     u1610 05A2  
                   u1290 01FD                     u1531 0513                     u1451 04D0  
                   u1435 04B2                     u1371 0451                     u1611 05A1  
                   u1291 01FC                     u1275 01EB                     u2067 03CB  
                   u1540 0520                     u1380 048A                     u1700 0707  
                   u1620 05C1                     u1541 051F                     u1381 0489  
                   u1621 05C0                     u1550 052E                     u1470 04DE  
                   u1630 05C7                     u1471 04DD                     u1631 05C6  
                   u1560 0549                     u1800 0771                     u1640 05CC  
                   u1561 0548                     u1465 04D4                     u1801 0770  
                   u1705 0703                     u1641 05CB                     u1570 0564  
                   u1490 04EE                     u1810 077F                     u1730 072F  
                   u1650 05E3                     u1571 0563                     u1555 052A  
                   u1491 04ED                     u1395 048B                     u1731 072E  
                   u1715 0712                     u1651 05E2                     u1580 0579  
                   u1820 079A                     u1660 05E8                     u1581 0578  
                   u1565 0545                     u1485 04E0                     u1821 0799  
                   u1725 0725                     u1661 05E7                     u1830 07B2  
                   u1750 073F                     u1590 0597                     u1910 026C  
                   u1575 0560                     u1831 07B1                     u1815 077B  
                   u1751 073E                     u1591 0596                     u1911 026B  
                   u1840 07CE                     u1760 0744                     u1841 07CD  
                   u1825 0796                     u1761 0743                     u1745 0731  
                   u1905 0260                     u1770 0758                     u1690 06F0  
                   u1930 027A                     u1850 020F                     u1835 07AE  
                   u1771 0757                     u1675 0667                     u1931 0279  
                   u1851 020E                     u1780 075F                     u1940 0280  
                   u1860 0213                     u1781 075E                     u1685 0696  
                   u1941 027F                     u1925 0270                     u1861 0212  
                   u1790 0765                     u1950 0284                     u1870 0233  
                   u1791 0764                     u1695 06EC                     u1951 0283  
                   u1871 0232                     u1960 0298                     u1970 02A7  
                   u1890 0252                     u1971 02A6                     u1891 0251  
                   u1980 02AB                     u1981 02AA                     u1965 0294  
                   u1885 0246                     u1990 02C7                     _SCS0 04C8  
                   _SCS1 04C9             __CFG_WRT$OFF 0000            __CFG_FCMEN$ON 0000  
                   _main 02B5                     fsr0h 0005                     fsr1h 0007  
                   fsr0l 0004                     fsr1l 0006                     btemp 007E  
          __CFG_BOREN$ON 0000                     start 0002            __CFG_FOSC$ECH 0000  
        ___fldiv@new_exp 0032            __CFG_MCLRE$ON 0000            __CFG_PLLEN$ON 0000  
          ___fltol@sign1 005D                    ?_main 0070          __end_of___fldiv 0589  
        __end_of___awdiv 0194            __CFG_WDTE$OFF 0000          __end_of___flmul 07E0  
        __end_of___fltol 0209          ___awdiv@divisor 0070                    _IRCF0 04CB  
                  _IRCF1 04CC                    _IRCF2 04CD                    _IRCF3 04CE  
        ___awdiv@counter 0075             main@interval 0120                    main@i 0065  
                  main@j 0067                    main@k 0063                    status 0003  
                  wtemp0 007E          __initialization 07E0             __end_of_main 03D5  
                 ??_main 005F         ___awdiv@dividend 0072                   _TMR0IE 005D  
                 _TMR0CS 04AD                   _TMR0SE 04AC                   _TRISB7 046F  
       __end_of___xxtofl 02B5           __CFG_PWRTE$OFF 0000                   ___wmul 008F  
              ??___fldiv 0028                ??___awdiv 0074           __CFG_STVREN$ON 0000  
              ??___flmul 0042                ??___fltol 0058         ___awdiv@quotient 0077  
     __size_of__Umul8_16 0023             ___xxtofl@arg 007A             ___xxtofl@exp 0079  
           ___xxtofl@val 0070  __end_of__initialization 07FD               ___fltol@f1 0054  
   _current_period_count 0069           __pcstackCOMMON 0070             __pidataBANK3 0103  
           __pidataBANK4 00D1               __pbssBANK0 0069               __pbssBANK1 00D2  
        __CFG_VCAPEN$OFF 0000        __end_of__Umul8_16 00D1               __pmaintext 02B5  
                ?___wmul 0070                ?___xxtofl 0070                  ___fldiv 03D5  
                ___awdiv 0135                  ___flmul 0589                  ___fltol 0194  
        __size_of___wmul 001F                  __ptext1 0209                  __ptext2 008F  
                __ptext3 0194                  __ptext4 0589                  __ptext5 00AE  
                __ptext6 03D5                  __ptext7 0135               ??___xxtofl 0074  
   end_of_initialization 07FD                  init_ram 0089                  initloop 008A  
          ___xxtofl@sign 0078              ___fldiv@grs 0034              ___fldiv@rem 002D  
            ___flmul@grs 0048           __end_of___wmul 00AE      start_initialization 07E0  
               ??___wmul 0074                __Umul8_16 00AE              __pdataBANK3 01A0  
            __pdataBANK4 0220                ___fldiv@a 0020                ___fldiv@b 0024  
              ___flmul@a 003E                ___flmul@b 003A                ___latbits 0002  
          __pcstackBANK0 0020            __pcstackBANK1 00A0            __pcstackBANK2 0120  
      __size_of___xxtofl 00AC                 ?___fldiv 0020                 ?___awdiv 0070  
               ?___flmul 003A                 ?___fltol 0054               ?__Umul8_16 0070  
            _half_period 00D2           ___wmul@product 0074                main@F2920 0220  
              main@F2918 01A0        ___wmul@multiplier 0070                main@notes 00A0  
            ??__Umul8_16 0072         __size_of___fldiv 01B4         __size_of___awdiv 005F  
       __size_of___flmul 0257         __size_of___fltol 0075                 ___xxtofl 0209  
               _main$678 0061            __size_of_main 0120        __CFG_CLKOUTEN$OFF 0000  
 __Umul8_16@multiplicand 0070     __Umul8_16@multiplier 0078        __Umul8_16@product 0074  
